Certificate:
    Data:
        Version: 3 (0x2)
        Serial Number: 4099 (0x1003)
        Signature Algorithm: sha256WithRSAEncryption
        Issuer: C=US, ST=Massachusetts, O=Thermo Fisher Scientific, Inc., OU=Clinical Sequencing Division, CN=CSD Intermediate CA/emailAddress=LSGSSFUNIXSupport@thermofisher.com
        Validity
            Not Before: Sep 18 18:59:00 2023 GMT
            Not After : Sep 17 18:59:00 2025 GMT
        Subject: C=US, ST=CA, O=Thermo Fisher Scientific, Inc., OU=Clinical Sequencing Division, CN=ec2-54-88-109-203.compute-1.amazonaws.com
        Subject Public Key Info:
            Public Key Algorithm: rsaEncryption
                RSA Public-Key: (2048 bit)
                Modulus:
                    00:b2:a5:81:4a:69:98:06:28:a1:0d:05:40:9d:a3:
                    fa:88:ec:01:65:d9:5c:70:46:7d:08:d8:67:e0:8e:
                    7d:16:94:5c:bd:c7:c5:4b:f4:55:88:0f:e1:82:35:
                    e2:07:94:42:a5:7b:db:5b:69:45:8f:4a:05:74:89:
                    0c:df:b1:96:09:99:8a:08:61:0e:c1:34:f6:59:f6:
                    6c:69:3a:0b:6e:89:0d:3b:df:b6:ca:ac:04:c6:2d:
                    96:65:e6:1f:d8:df:70:ce:4e:60:77:a3:aa:2c:af:
                    58:55:e2:7e:ed:d7:3b:9d:e7:dd:e9:c0:09:b6:df:
                    4c:ca:6f:6b:3d:f9:03:6e:2b:c0:30:fc:9b:5e:8a:
                    6d:8c:3e:da:63:20:65:c6:1e:3f:59:eb:e7:54:18:
                    d2:f6:c6:d7:63:d6:3d:7a:e2:a0:58:ef:5d:fc:65:
                    18:7e:8a:91:dc:89:c6:54:bb:e1:ea:7a:3b:80:2a:
                    d6:9e:51:e4:19:49:19:e7:7d:5a:3d:df:ed:dc:81:
                    b9:5c:46:50:11:7d:9a:07:e8:49:85:f2:f9:bd:59:
                    16:18:f7:c2:76:bb:04:c0:2f:da:bb:47:35:4f:c2:
                    d7:d1:8a:9d:3f:5f:6f:8b:21:16:52:e2:f4:58:0e:
                    38:99:fb:02:3f:4a:0f:31:f6:8b:e1:2d:3e:df:7e:
                    71:45
                Exponent: 65537 (0x10001)
        X509v3 extensions:
            X509v3 Basic Constraints: 
                CA:FALSE
            Netscape Cert Type: 
                SSL Server
            Netscape Comment: 
                OpenSSL Generated Server Certificate
            X509v3 Subject Key Identifier: 
                B3:55:00:47:E6:8C:76:E6:BA:6A:0B:73:7A:1B:5E:03:C6:6E:DC:67
            X509v3 Authority Key Identifier: 
                keyid:06:32:42:CE:0C:64:EC:FE:27:B2:52:01:D0:E6:D1:E5:43:0D:B6:AE
                DirName:/C=US/ST=Massachusetts/O=Thermo Fisher Scientific, Inc./OU=Clinical Sequencing Division/CN=CSD Root CA/emailAddress=LSGSSFUNIXSupport@thermofisher.com
                serial:10:02

            X509v3 Key Usage: critical
                Digital Signature, Key Encipherment
            X509v3 Extended Key Usage: 
                TLS Web Server Authentication
    Signature Algorithm: sha256WithRSAEncryption
         5d:58:4c:84:8c:61:06:ac:e0:a5:bb:e4:5d:a8:84:ce:bf:e4:
         95:fe:b4:2a:11:13:1e:95:82:7e:90:fe:64:d3:be:38:2c:49:
         b9:c6:a1:71:ff:19:db:7f:18:68:3e:c0:2f:d0:26:d0:a1:bd:
         47:fc:fa:ea:91:18:89:1a:b4:10:f9:76:66:41:42:1c:72:bf:
         8c:a8:48:03:26:19:2e:b3:9e:37:82:36:d3:59:e0:5f:43:a5:
         2a:49:0f:43:24:46:34:e3:bf:cd:95:42:9a:2f:64:c5:73:ea:
         b5:b8:d4:e8:db:dd:a6:8c:a9:c7:a0:cf:8e:69:ae:f3:36:2a:
         a3:ca:62:fb:d3:e4:cc:60:cf:9f:63:86:f6:4a:7c:b7:e7:a3:
         20:82:8e:6c:27:5d:72:4e:52:42:93:a5:eb:1e:50:ee:4d:23:
         20:09:68:d3:aa:a1:22:77:29:bd:83:5f:72:44:da:85:cd:47:
         65:e9:41:bb:d7:c2:3c:67:45:74:01:bf:19:a3:30:6a:44:aa:
         10:46:c7:14:47:93:a0:d5:5c:21:c6:2d:46:b3:a5:f0:e4:1e:
         f7:b5:de:ea:2d:d8:a0:d2:27:7e:52:fa:7b:03:2f:2a:9a:67:
         3c:5b:c2:33:ca:fc:b5:c3:be:f7:78:c5:69:6d:49:68:c8:c4:
         e0:c8:f5:b8:f6:f9:d3:3f:69:83:81:88:1a:75:f5:10:31:e0:
         cf:04:bc:2f:67:5d:bc:41:29:1d:e8:8a:00:67:4e:d5:0e:0b:
         d4:49:cb:76:f2:ed:62:0e:d7:a2:32:b2:14:c2:18:de:d7:ec:
         40:b4:e1:bb:d8:73:66:ec:91:0b:f0:eb:9a:03:66:d5:ae:e5:
         25:2c:22:d3:54:8e:4d:dd:a4:9e:bf:c9:ab:fc:5e:77:e9:93:
         f8:ea:b7:85:6a:4c:ee:6c:78:a5:47:19:df:51:80:91:2d:69:
         96:54:28:78:5f:90:d7:66:0a:90:de:28:12:26:d6:37:3b:6e:
         89:54:de:05:ca:85:56:4d:8b:93:4d:f8:02:0c:2b:e4:7c:bd:
         d7:7a:49:32:89:89:3c:28:09:58:74:bf:2f:6d:16:35:86:bd:
         ec:81:90:a4:ca:21:24:c0:08:0e:b1:d7:9f:6f:2b:c4:a1:7e:
         fd:39:d4:d4:ea:58:0e:94:b0:57:3d:79:9d:45:34:1b:24:e7:
         88:0a:4e:42:c8:11:87:1f:41:2c:f8:59:59:c5:39:7b:2e:d7:
         ef:72:d6:35:a7:bd:4e:9c:38:a6:6c:b7:c5:35:23:46:d9:88:
         ac:e1:d1:8c:55:aa:f1:e3:f5:37:89:fa:2b:09:e9:67:c7:1e:
         cf:c3:d1:21:46:94:9e:ba
-----BEGIN CERTIFICATE-----
MIIGbjCCBFagAwIBAgICEAMwDQYJKoZIhvcNAQELBQAwgcYxCzAJBgNVBAYTAlVT
MRYwFAYDVQQIDA1NYXNzYWNodXNldHRzMScwJQYDVQQKDB5UaGVybW8gRmlzaGVy
IFNjaWVudGlmaWMsIEluYy4xJTAjBgNVBAsMHENsaW5pY2FsIFNlcXVlbmNpbmcg
RGl2aXNpb24xHDAaBgNVBAMME0NTRCBJbnRlcm1lZGlhdGUgQ0ExMTAvBgkqhkiG
9w0BCQEWIkxTR1NTRlVOSVhTdXBwb3J0QHRoZXJtb2Zpc2hlci5jb20wHhcNMjMw
OTE4MTg1OTAwWhcNMjUwOTE3MTg1OTAwWjCBnjELMAkGA1UEBhMCVVMxCzAJBgNV
BAgMAkNBMScwJQYDVQQKDB5UaGVybW8gRmlzaGVyIFNjaWVudGlmaWMsIEluYy4x
JTAjBgNVBAsMHENsaW5pY2FsIFNlcXVlbmNpbmcgRGl2aXNpb24xMjAwBgNVBAMM
KWVjMi01NC04OC0xMDktMjAzLmNvbXB1dGUtMS5hbWF6b25hd3MuY29tMIIBIjAN
BgkqhkiG9w0BAQEFAAOCAQ8AMIIBCgKCAQEAsqWBSmmYBiihDQVAnaP6iOwBZdlc
cEZ9CNhn4I59FpRcvcfFS/RViA/hgjXiB5RCpXvbW2lFj0oFdIkM37GWCZmKCGEO
wTT2WfZsaToLbokNO9+2yqwExi2WZeYf2N9wzk5gd6OqLK9YVeJ+7dc7nefd6cAJ
tt9Mym9rPfkDbivAMPybXoptjD7aYyBlxh4/WevnVBjS9sbXY9Y9euKgWO9d/GUY
foqR3InGVLvh6no7gCrWnlHkGUkZ531aPd/t3IG5XEZQEX2aB+hJhfL5vVkWGPfC
drsEwC/au0c1T8LX0YqdP19viyEWUuL0WA44mfsCP0oPMfaL4S0+335xRQIDAQAB
o4IBijCCAYYwCQYDVR0TBAIwADARBglghkgBhvhCAQEEBAMCBkAwMwYJYIZIAYb4
QgENBCYWJE9wZW5TU0wgR2VuZXJhdGVkIFNlcnZlciBDZXJ0aWZpY2F0ZTAdBgNV
HQ4EFgQUs1UAR+aMdua6agtzehteA8Zu3GcwgewGA1UdIwSB5DCB4YAUBjJCzgxk
7P4nslIB0ObR5UMNtq6hgcSkgcEwgb4xCzAJBgNVBAYTAlVTMRYwFAYDVQQIDA1N
YXNzYWNodXNldHRzMScwJQYDVQQKDB5UaGVybW8gRmlzaGVyIFNjaWVudGlmaWMs
IEluYy4xJTAjBgNVBAsMHENsaW5pY2FsIFNlcXVlbmNpbmcgRGl2aXNpb24xFDAS
BgNVBAMMC0NTRCBSb290IENBMTEwLwYJKoZIhvcNAQkBFiJMU0dTU0ZVTklYU3Vw
cG9ydEB0aGVybW9maXNoZXIuY29tggIQAjAOBgNVHQ8BAf8EBAMCBaAwEwYDVR0l
BAwwCgYIKwYBBQUHAwEwDQYJKoZIhvcNAQELBQADggIBAF1YTISMYQas4KW75F2o
hM6/5JX+tCoREx6Vgn6Q/mTTvjgsSbnGoXH/Gdt/GGg+wC/QJtChvUf8+uqRGIka
tBD5dmZBQhxyv4yoSAMmGS6znjeCNtNZ4F9DpSpJD0MkRjTjv82VQpovZMVz6rW4
1Ojb3aaMqcegz45prvM2KqPKYvvT5Mxgz59jhvZKfLfnoyCCjmwnXXJOUkKTpese
UO5NIyAJaNOqoSJ3Kb2DX3JE2oXNR2XpQbvXwjxnRXQBvxmjMGpEqhBGxxRHk6DV
XCHGLUazpfDkHve13uot2KDSJ35S+nsDLyqaZzxbwjPK/LXDvvd4xWltSWjIxODI
9bj2+dM/aYOBiBp19RAx4M8EvC9nXbxBKR3oigBnTtUOC9RJy3by7WIO16IyshTC
GN7X7EC04bvYc2bskQvw65oDZtWu5SUsItNUjk3dpJ6/yav8Xnfpk/jqt4VqTO5s
eKVHGd9RgJEtaZZUKHhfkNdmCpDeKBIm1jc7bolU3gXKhVZNi5NN+AIMK+R8vdd6
STKJiTwoCVh0vy9tFjWGveyBkKTKISTACA6x159vK8Shfv051NTqWA6UsFc9eZ1F
NBsk54gKTkLIEYcfQSz4WVnFOXsu1+9y1jWnvU6cOKZst8U1I0bZiKzh0YxVqvHj
9TeJ+isJ6WfHHs/D0SFGlJ66
-----END CERTIFICATE-----
