Certificate:
    Data:
        Version: 3 (0x2)
        Serial Number: 4100 (0x1004)
        Signature Algorithm: sha256WithRSAEncryption
        Issuer: C=US, ST=Massachusetts, O=Thermo Fisher Scientific, Inc., OU=Clinical Sequencing Division, CN=CSD Intermediate CA/emailAddress=LSGSSFUNIXSupport@thermofisher.com
        Validity
            Not Before: Sep 18 21:12:16 2023 GMT
            Not After : Sep 17 21:12:16 2025 GMT
        Subject: C=US, ST=CA, O=Thermo Fisher Scientific, Inc., OU=Clinical Sequencing Division, CN=ec2-54-88-109-203.compute-1.amazonaws.com
        Subject Public Key Info:
            Public Key Algorithm: rsaEncryption
                RSA Public-Key: (2048 bit)
                Modulus:
                    00:b2:a5:81:4a:69:98:06:28:a1:0d:05:40:9d:a3:
                    fa:88:ec:01:65:d9:5c:70:46:7d:08:d8:67:e0:8e:
                    7d:16:94:5c:bd:c7:c5:4b:f4:55:88:0f:e1:82:35:
                    e2:07:94:42:a5:7b:db:5b:69:45:8f:4a:05:74:89:
                    0c:df:b1:96:09:99:8a:08:61:0e:c1:34:f6:59:f6:
                    6c:69:3a:0b:6e:89:0d:3b:df:b6:ca:ac:04:c6:2d:
                    96:65:e6:1f:d8:df:70:ce:4e:60:77:a3:aa:2c:af:
                    58:55:e2:7e:ed:d7:3b:9d:e7:dd:e9:c0:09:b6:df:
                    4c:ca:6f:6b:3d:f9:03:6e:2b:c0:30:fc:9b:5e:8a:
                    6d:8c:3e:da:63:20:65:c6:1e:3f:59:eb:e7:54:18:
                    d2:f6:c6:d7:63:d6:3d:7a:e2:a0:58:ef:5d:fc:65:
                    18:7e:8a:91:dc:89:c6:54:bb:e1:ea:7a:3b:80:2a:
                    d6:9e:51:e4:19:49:19:e7:7d:5a:3d:df:ed:dc:81:
                    b9:5c:46:50:11:7d:9a:07:e8:49:85:f2:f9:bd:59:
                    16:18:f7:c2:76:bb:04:c0:2f:da:bb:47:35:4f:c2:
                    d7:d1:8a:9d:3f:5f:6f:8b:21:16:52:e2:f4:58:0e:
                    38:99:fb:02:3f:4a:0f:31:f6:8b:e1:2d:3e:df:7e:
                    71:45
                Exponent: 65537 (0x10001)
        X509v3 extensions:
            Netscape Cert Type: 
                SSL Server
            Netscape Comment: 
                OpenSSL Generated Server Certificate
            X509v3 Key Usage: critical
                Digital Signature, Key Encipherment, Data Encipherment
            X509v3 Authority Key Identifier: 
                keyid:06:32:42:CE:0C:64:EC:FE:27:B2:52:01:D0:E6:D1:E5:43:0D:B6:AE
                DirName:/C=US/ST=Massachusetts/O=Thermo Fisher Scientific, Inc./OU=Clinical Sequencing Division/CN=CSD Root CA/emailAddress=LSGSSFUNIXSupport@thermofisher.com
                serial:10:02

            X509v3 Extended Key Usage: 
                TLS Web Server Authentication
            X509v3 Subject Key Identifier: 
                B3:55:00:47:E6:8C:76:E6:BA:6A:0B:73:7A:1B:5E:03:C6:6E:DC:67
            X509v3 Basic Constraints: 
                CA:FALSE
            X509v3 Subject Alternative Name: 
                DNS:ec2-54-88-109-203.compute-1.amazonaws.com, IP Address:54.88.109.203
    Signature Algorithm: sha256WithRSAEncryption
         2b:d9:84:b6:b5:5d:7f:c2:0e:7f:ab:cc:1f:e9:bb:0b:7b:9f:
         f5:b7:97:80:f4:00:b0:f0:e7:b6:2d:c1:3b:04:80:bc:c8:01:
         9b:4d:8e:74:52:a5:79:be:89:2b:ac:84:81:ef:1c:45:20:b9:
         76:54:bb:2b:c1:c7:e9:52:3f:a9:f3:c8:95:d1:99:b8:fa:18:
         55:39:64:b6:93:fa:cc:0c:22:3c:ab:74:8d:6d:4d:57:b1:4f:
         50:cd:60:95:86:dc:2f:0f:a2:a4:9a:94:8c:88:2f:f8:fe:96:
         97:af:9d:ed:15:fa:01:bb:75:91:0d:c0:f8:a8:13:15:a0:74:
         23:14:bc:22:de:8f:69:d8:d7:f8:9b:3b:d4:cd:de:67:04:c3:
         4a:f4:51:93:f9:5a:3d:80:9c:29:9b:38:87:5e:75:f5:45:28:
         02:38:56:85:bd:93:88:25:d3:b2:fe:27:37:1e:96:ce:d7:34:
         17:1a:d5:a7:0e:e5:e1:2f:1e:5b:3a:33:c6:74:a6:42:87:57:
         11:82:6d:89:74:e0:e6:0c:69:22:77:ac:1a:f8:ca:b2:87:d8:
         37:16:41:f1:52:d4:0a:9f:e7:75:58:73:fd:2c:ba:40:1d:e4:
         b1:b3:52:83:54:5e:a0:79:5e:7c:6f:df:1a:50:44:cf:55:67:
         9b:38:84:02:75:1c:c7:b2:c0:d4:62:8b:9a:57:c0:9d:d5:8f:
         b0:24:87:08:1a:78:24:27:42:37:d4:26:96:32:0c:78:15:7d:
         e5:36:d2:98:25:ca:87:70:35:db:50:12:17:d0:73:2d:91:7f:
         15:c1:d2:4a:9f:68:7e:79:62:d7:e7:aa:58:20:d6:23:bc:2e:
         8b:bd:50:25:b3:1b:9e:d5:76:53:c2:56:43:28:45:07:07:58:
         d0:07:2a:84:c3:c5:d5:4b:53:87:b2:04:38:4a:7b:b6:dc:8c:
         d9:c9:44:53:8a:6d:00:35:4e:5a:b7:8d:fb:77:71:45:b3:d8:
         21:e5:b2:78:2e:f4:5c:2e:19:d0:d3:d9:d9:5b:b7:0f:08:a9:
         ac:02:36:30:4a:39:bb:9b:de:7c:e4:e5:88:92:e7:06:8c:d5:
         46:3e:cb:22:a8:b1:9b:9c:c8:f7:0a:c7:86:13:44:cc:b6:ea:
         5c:3a:bc:17:aa:90:69:db:d5:15:c4:80:7f:ee:05:ad:c5:46:
         c5:45:a2:25:b6:54:58:cf:6e:03:58:91:bc:47:94:44:da:b3:
         b0:ef:fa:51:73:f8:55:86:fb:a5:1e:9e:ae:3b:ba:6b:e4:e3:
         e2:fc:da:f6:3c:2e:95:37:e6:35:4e:29:74:2b:1b:a6:f0:19:
         13:e8:dd:39:88:3d:a5:6c
-----BEGIN CERTIFICATE-----
MIIGqjCCBJKgAwIBAgICEAQwDQYJKoZIhvcNAQELBQAwgcYxCzAJBgNVBAYTAlVT
MRYwFAYDVQQIDA1NYXNzYWNodXNldHRzMScwJQYDVQQKDB5UaGVybW8gRmlzaGVy
IFNjaWVudGlmaWMsIEluYy4xJTAjBgNVBAsMHENsaW5pY2FsIFNlcXVlbmNpbmcg
RGl2aXNpb24xHDAaBgNVBAMME0NTRCBJbnRlcm1lZGlhdGUgQ0ExMTAvBgkqhkiG
9w0BCQEWIkxTR1NTRlVOSVhTdXBwb3J0QHRoZXJtb2Zpc2hlci5jb20wHhcNMjMw
OTE4MjExMjE2WhcNMjUwOTE3MjExMjE2WjCBnjELMAkGA1UEBhMCVVMxCzAJBgNV
BAgMAkNBMScwJQYDVQQKDB5UaGVybW8gRmlzaGVyIFNjaWVudGlmaWMsIEluYy4x
JTAjBgNVBAsMHENsaW5pY2FsIFNlcXVlbmNpbmcgRGl2aXNpb24xMjAwBgNVBAMM
KWVjMi01NC04OC0xMDktMjAzLmNvbXB1dGUtMS5hbWF6b25hd3MuY29tMIIBIjAN
BgkqhkiG9w0BAQEFAAOCAQ8AMIIBCgKCAQEAsqWBSmmYBiihDQVAnaP6iOwBZdlc
cEZ9CNhn4I59FpRcvcfFS/RViA/hgjXiB5RCpXvbW2lFj0oFdIkM37GWCZmKCGEO
wTT2WfZsaToLbokNO9+2yqwExi2WZeYf2N9wzk5gd6OqLK9YVeJ+7dc7nefd6cAJ
tt9Mym9rPfkDbivAMPybXoptjD7aYyBlxh4/WevnVBjS9sbXY9Y9euKgWO9d/GUY
foqR3InGVLvh6no7gCrWnlHkGUkZ531aPd/t3IG5XEZQEX2aB+hJhfL5vVkWGPfC
drsEwC/au0c1T8LX0YqdP19viyEWUuL0WA44mfsCP0oPMfaL4S0+335xRQIDAQAB
o4IBxjCCAcIwEQYJYIZIAYb4QgEBBAQDAgZAMDMGCWCGSAGG+EIBDQQmFiRPcGVu
U1NMIEdlbmVyYXRlZCBTZXJ2ZXIgQ2VydGlmaWNhdGUwDgYDVR0PAQH/BAQDAgSw
MIHsBgNVHSMEgeQwgeGAFAYyQs4MZOz+J7JSAdDm0eVDDbauoYHEpIHBMIG+MQsw
CQYDVQQGEwJVUzEWMBQGA1UECAwNTWFzc2FjaHVzZXR0czEnMCUGA1UECgweVGhl
cm1vIEZpc2hlciBTY2llbnRpZmljLCBJbmMuMSUwIwYDVQQLDBxDbGluaWNhbCBT
ZXF1ZW5jaW5nIERpdmlzaW9uMRQwEgYDVQQDDAtDU0QgUm9vdCBDQTExMC8GCSqG
SIb3DQEJARYiTFNHU1NGVU5JWFN1cHBvcnRAdGhlcm1vZmlzaGVyLmNvbYICEAIw
EwYDVR0lBAwwCgYIKwYBBQUHAwEwHQYDVR0OBBYEFLNVAEfmjHbmumoLc3obXgPG
btxnMAkGA1UdEwQCMAAwOgYDVR0RBDMwMYIpZWMyLTU0LTg4LTEwOS0yMDMuY29t
cHV0ZS0xLmFtYXpvbmF3cy5jb22HBDZYbcswDQYJKoZIhvcNAQELBQADggIBACvZ
hLa1XX/CDn+rzB/puwt7n/W3l4D0ALDw57YtwTsEgLzIAZtNjnRSpXm+iSushIHv
HEUguXZUuyvBx+lSP6nzyJXRmbj6GFU5ZLaT+swMIjyrdI1tTVexT1DNYJWG3C8P
oqSalIyIL/j+lpevne0V+gG7dZENwPioExWgdCMUvCLej2nY1/ibO9TN3mcEw0r0
UZP5Wj2AnCmbOIdedfVFKAI4VoW9k4gl07L+Jzcels7XNBca1acO5eEvHls6M8Z0
pkKHVxGCbYl04OYMaSJ3rBr4yrKH2DcWQfFS1Aqf53VYc/0sukAd5LGzUoNUXqB5
Xnxv3xpQRM9VZ5s4hAJ1HMeywNRii5pXwJ3Vj7AkhwgaeCQnQjfUJpYyDHgVfeU2
0pglyodwNdtQEhfQcy2RfxXB0kqfaH55Ytfnqlgg1iO8Lou9UCWzG57VdlPCVkMo
RQcHWNAHKoTDxdVLU4eyBDhKe7bcjNnJRFOKbQA1Tlq3jft3cUWz2CHlsngu9Fwu
GdDT2dlbtw8IqawCNjBKObub3nzk5YiS5waM1UY+yyKosZucyPcKx4YTRMy26lw6
vBeqkGnb1RXEgH/uBa3FRsVFoiW2VFjPbgNYkbxHlETas7Dv+lFz+FWG+6Uenq47
umvk4+L82vY8LpU35jVOKXQrG6bwGRPo3TmIPaVs
-----END CERTIFICATE-----
