Certificate:
    Data:
        Version: 3 (0x2)
        Serial Number: 4101 (0x1005)
        Signature Algorithm: sha256WithRSAEncryption
        Issuer: C=US, ST=Massachusetts, O=Thermo Fisher Scientific, Inc., OU=Clinical Sequencing Division, CN=CSD Root CA/emailAddress=LSGSSFUNIXSupport@thermofisher.com
        Validity
            Not Before: Jun 19 07:56:48 2023 GMT
            Not After : Jun 14 07:56:48 2043 GMT
        Subject: C=US, ST=Massachusetts, O=Thermo Fisher Scientific, Inc., OU=Clinical Sequencing Division, CN=CSD Root CA/emailAddress=LSGSSFUNIXSupport@thermofisher.com
        Subject Public Key Info:
            Public Key Algorithm: rsaEncryption
                RSA Public-Key: (4096 bit)
                Modulus:
                    00:bc:23:b7:24:4f:40:d3:53:23:e2:20:51:c0:8c:
                    cc:bc:31:5b:a8:fc:53:79:54:f9:17:87:4d:18:1f:
                    70:33:1f:bd:d5:e4:bb:e2:48:2c:53:b6:43:44:02:
                    43:c3:ac:50:62:07:38:12:81:e6:40:07:8f:64:d6:
                    11:ab:a0:e0:3a:4a:38:3d:d7:44:d2:03:b0:98:7b:
                    e0:ea:ae:a6:15:d2:61:43:67:92:e3:37:ff:bf:a8:
                    d0:7b:d1:6c:77:da:f4:6d:07:45:16:3c:0f:a1:87:
                    a9:91:f3:1e:67:3f:03:f9:3c:7e:8b:77:44:f5:aa:
                    44:90:e0:4e:e5:6e:2c:dd:23:48:31:2d:5e:a2:a3:
                    da:74:07:de:03:fa:15:9c:a7:db:b7:86:d3:fc:0c:
                    2f:ba:96:83:8b:49:95:af:98:5b:4f:92:df:25:b9:
                    7f:81:fb:65:b4:94:22:e0:c9:b8:83:86:ce:bd:b2:
                    0d:5a:31:1e:69:20:7f:fd:5a:81:83:94:21:fe:ce:
                    1d:b1:b5:8f:e7:85:16:c1:c7:07:13:96:4d:9b:3e:
                    b7:e3:f1:c5:03:60:54:65:b3:4d:59:0a:13:22:42:
                    50:52:96:9c:b3:b6:60:0f:9d:9b:82:e5:03:e8:b1:
                    1b:50:44:46:47:f7:1b:d1:38:07:4e:fd:ac:3c:49:
                    78:b3:97:0c:7b:ae:c1:2f:89:2d:ce:db:ab:d7:8a:
                    43:dc:b2:bf:eb:67:70:47:2e:9f:7e:2a:36:ec:df:
                    39:d3:33:88:f6:43:47:ca:ce:dc:80:df:d1:d6:98:
                    9c:79:c8:d0:77:ba:f3:98:f6:d1:93:17:bd:cf:ae:
                    b9:7d:27:8e:65:50:53:d0:1b:20:30:11:54:09:53:
                    97:a7:f1:aa:ca:87:a2:6f:94:05:b3:8f:af:84:73:
                    63:17:c0:33:87:fa:ee:fe:45:a7:ff:6e:88:29:f5:
                    ae:17:83:83:f7:3d:8c:ca:91:c0:b3:6f:dc:ee:a2:
                    06:fc:f0:52:aa:34:df:bd:71:be:d2:33:14:21:92:
                    4d:a1:02:c9:d2:3b:27:ad:9e:d0:d2:fe:72:22:0e:
                    41:e1:a8:44:52:c9:26:d1:58:04:1c:86:02:70:31:
                    f3:ca:b1:57:86:11:ac:cc:c2:f2:e4:b1:7f:66:b5:
                    7e:fc:bf:db:e9:bf:49:a9:f8:fc:67:26:19:95:26:
                    97:76:80:7c:98:42:5d:2f:70:c9:9d:14:ce:e6:44:
                    d2:a2:e3:77:45:a3:8c:19:52:ea:8d:15:ce:8a:1c:
                    ac:29:d2:a8:5a:af:d9:62:de:b4:95:4b:b9:25:cc:
                    92:c0:54:65:22:fe:eb:67:39:66:fc:dd:70:bd:f0:
                    a1:0d:ed
                Exponent: 65537 (0x10001)
        X509v3 extensions:
            X509v3 Subject Key Identifier: 
                20:85:FC:E1:61:B3:1A:1B:21:BB:BE:B0:C7:2A:46:E2:3A:08:21:4C
            X509v3 Basic Constraints: critical
                CA:TRUE
            X509v3 Key Usage: critical
                Certificate Sign, CRL Sign
    Signature Algorithm: sha256WithRSAEncryption
         3a:5d:71:87:b3:90:7b:18:cb:07:19:30:c8:65:ed:8e:43:ec:
         36:51:e2:70:6b:2e:ca:a9:4b:e9:22:bf:c4:1b:77:b7:f5:7e:
         ee:81:6e:53:7f:09:f6:c3:c8:3d:05:5e:9b:bd:9e:2f:e5:bc:
         3c:a5:7c:36:44:2f:d3:70:57:a3:a7:3b:70:79:a1:b6:a1:5c:
         57:00:eb:38:96:4f:f1:a7:ef:6a:ed:5f:28:1c:b4:0b:05:a1:
         32:31:74:8f:d6:2f:0f:ac:11:78:28:85:fd:d9:ab:b2:59:d5:
         f9:00:7d:81:04:a3:64:8c:13:c5:2d:89:c0:94:3b:40:de:17:
         22:78:ed:ff:14:aa:3d:26:e7:45:b7:a2:9d:6a:75:ee:89:c9:
         1e:3d:6a:d7:10:48:14:dd:78:2d:5c:45:6a:bd:8a:88:4f:5c:
         5f:95:6b:74:9d:cb:84:30:78:ac:28:db:dc:3f:d4:ee:c7:ef:
         3f:05:94:30:5e:7f:57:48:b8:f7:3a:d2:a8:66:ed:28:9d:6e:
         8a:63:99:f5:39:bf:8c:7b:58:ec:89:36:84:a6:d3:a8:67:50:
         89:9e:b9:32:af:72:b4:81:5b:18:57:be:0b:af:bf:cd:4e:bb:
         36:d7:42:da:27:0c:32:a0:39:94:26:86:49:97:60:7e:33:71:
         4d:29:0d:3b:45:6a:7f:61:09:91:d4:51:f3:c3:c2:a9:b7:11:
         6f:06:7b:94:50:3a:79:62:54:c2:50:cf:d4:2e:1b:c4:7e:76:
         77:74:56:61:46:4a:ce:a4:f0:b1:b0:fb:56:24:f6:91:c9:fb:
         97:58:61:95:e9:46:22:5d:24:38:e2:a4:bb:15:aa:6f:35:50:
         72:68:a4:dc:e3:51:41:35:56:c3:35:1b:3d:36:50:82:3f:ca:
         7b:0c:63:48:0a:cc:2e:ad:3d:30:b2:ab:a0:45:c3:c8:ac:bc:
         34:ec:54:ec:bd:19:1d:2a:fb:9d:40:6b:3e:bc:1a:36:44:e5:
         9c:87:ec:19:25:91:a2:ec:3b:44:05:96:a9:52:42:4e:73:97:
         0b:a9:6c:77:ca:64:b0:13:0f:1a:07:cf:d3:2c:ec:b0:a9:6c:
         57:4d:a6:c6:e6:25:1b:6a:e4:e6:97:2d:fe:b3:c6:7c:d9:69:
         7a:75:7a:a3:88:2c:50:18:fa:c6:e3:09:5a:db:a0:38:01:be:
         ca:3b:8f:e2:f2:e1:b6:4b:ca:fc:c4:81:07:33:8a:7c:af:42:
         db:10:4d:48:31:1c:2d:71:1a:74:7e:32:1f:8b:7d:88:5c:cf:
         2b:5d:27:c4:fb:01:8a:1e:23:1d:cf:b1:72:9c:5f:37:84:7d:
         26:74:4e:4c:39:43:59:44
-----BEGIN CERTIFICATE-----
MIIGPDCCBCSgAwIBAgICEAUwDQYJKoZIhvcNAQELBQAwgb4xCzAJBgNVBAYTAlVT
MRYwFAYDVQQIDA1NYXNzYWNodXNldHRzMScwJQYDVQQKDB5UaGVybW8gRmlzaGVy
IFNjaWVudGlmaWMsIEluYy4xJTAjBgNVBAsMHENsaW5pY2FsIFNlcXVlbmNpbmcg
RGl2aXNpb24xFDASBgNVBAMMC0NTRCBSb290IENBMTEwLwYJKoZIhvcNAQkBFiJM
U0dTU0ZVTklYU3VwcG9ydEB0aGVybW9maXNoZXIuY29tMB4XDTIzMDYxOTA3NTY0
OFoXDTQzMDYxNDA3NTY0OFowgb4xCzAJBgNVBAYTAlVTMRYwFAYDVQQIDA1NYXNz
YWNodXNldHRzMScwJQYDVQQKDB5UaGVybW8gRmlzaGVyIFNjaWVudGlmaWMsIElu
Yy4xJTAjBgNVBAsMHENsaW5pY2FsIFNlcXVlbmNpbmcgRGl2aXNpb24xFDASBgNV
BAMMC0NTRCBSb290IENBMTEwLwYJKoZIhvcNAQkBFiJMU0dTU0ZVTklYU3VwcG9y
dEB0aGVybW9maXNoZXIuY29tMIICIjANBgkqhkiG9w0BAQEFAAOCAg8AMIICCgKC
AgEAvCO3JE9A01Mj4iBRwIzMvDFbqPxTeVT5F4dNGB9wMx+91eS74kgsU7ZDRAJD
w6xQYgc4EoHmQAePZNYRq6DgOko4PddE0gOwmHvg6q6mFdJhQ2eS4zf/v6jQe9Fs
d9r0bQdFFjwPoYepkfMeZz8D+Tx+i3dE9apEkOBO5W4s3SNIMS1eoqPadAfeA/oV
nKfbt4bT/AwvupaDi0mVr5hbT5LfJbl/gftltJQi4Mm4g4bOvbINWjEeaSB//VqB
g5Qh/s4dsbWP54UWwccHE5ZNmz634/HFA2BUZbNNWQoTIkJQUpacs7ZgD52bguUD
6LEbUERGR/cb0TgHTv2sPEl4s5cMe67BL4ktztur14pD3LK/62dwRy6ffio27N85
0zOI9kNHys7cgN/R1picecjQd7rzmPbRkxe9z665fSeOZVBT0BsgMBFUCVOXp/Gq
yoeib5QFs4+vhHNjF8Azh/ru/kWn/26IKfWuF4OD9z2MypHAs2/c7qIG/PBSqjTf
vXG+0jMUIZJNoQLJ0jsnrZ7Q0v5yIg5B4ahEUskm0VgEHIYCcDHzyrFXhhGszMLy
5LF/ZrV+/L/b6b9Jqfj8ZyYZlSaXdoB8mEJdL3DJnRTO5kTSouN3RaOMGVLqjRXO
ihysKdKoWq/ZYt60lUu5JcySwFRlIv7rZzlm/N1wvfChDe0CAwEAAaNCMEAwHQYD
VR0OBBYEFCCF/OFhsxobIbu+sMcqRuI6CCFMMA8GA1UdEwEB/wQFMAMBAf8wDgYD
VR0PAQH/BAQDAgEGMA0GCSqGSIb3DQEBCwUAA4ICAQA6XXGHs5B7GMsHGTDIZe2O
Q+w2UeJway7KqUvpIr/EG3e39X7ugW5Tfwn2w8g9BV6bvZ4v5bw8pXw2RC/TcFej
pztweaG2oVxXAOs4lk/xp+9q7V8oHLQLBaEyMXSP1i8PrBF4KIX92auyWdX5AH2B
BKNkjBPFLYnAlDtA3hcieO3/FKo9JudFt6KdanXuickePWrXEEgU3XgtXEVqvYqI
T1xflWt0ncuEMHisKNvcP9Tux+8/BZQwXn9XSLj3OtKoZu0onW6KY5n1Ob+Me1js
iTaEptOoZ1CJnrkyr3K0gVsYV74Lr7/NTrs210LaJwwyoDmUJoZJl2B+M3FNKQ07
RWp/YQmR1FHzw8KptxFvBnuUUDp5YlTCUM/ULhvEfnZ3dFZhRkrOpPCxsPtWJPaR
yfuXWGGV6UYiXSQ44qS7FapvNVByaKTc41FBNVbDNRs9NlCCP8p7DGNICswurT0w
squgRcPIrLw07FTsvRkdKvudQGs+vBo2ROWch+wZJZGi7DtEBZapUkJOc5cLqWx3
ymSwEw8aB8/TLOywqWxXTabG5iUbauTmly3+s8Z82Wl6dXqjiCxQGPrG4wla26A4
Ab7KO4/i8uG2S8r8xIEHM4p8r0LbEE1IMRwtcRp0fjIfi32IXM8rXSfE+wGKHiMd
z7FynF83hH0mdE5MOUNZRA==
-----END CERTIFICATE-----
