Certificate:
    Data:
        Version: 3 (0x2)
        Serial Number: 4099 (0x1003)
        Signature Algorithm: sha256WithRSAEncryption
        Issuer: C=US, ST=Massachusetts, O=Thermo Fisher Scientific, Inc., OU=Clinical Sequencing Division, CN=Root CA/emailAddress=LSGSSFUNIXSupport@thermofisher.com
        Validity
            Not Before: Jun 19 06:01:05 2023 GMT
            Not After : Jun 16 06:01:05 2033 GMT
        Subject: C=US, ST=Massachusetts, O=Thermo Fisher Scientific, Inc., OU=Clinical Sequencing Division, CN=Root CA/emailAddress=LSGSSFUNIXSupport@thermofisher.com
        Subject Public Key Info:
            Public Key Algorithm: rsaEncryption
                RSA Public-Key: (4096 bit)
                Modulus:
                    00:b0:eb:10:9c:f6:b5:48:7e:65:a2:be:3e:b8:28:
                    d2:2e:cb:bb:fb:75:bb:83:08:4a:5d:36:61:05:b3:
                    07:16:b7:2a:64:8f:3d:11:4b:12:9b:6e:2d:e5:55:
                    b5:f5:64:c5:d6:4b:00:8e:8c:94:90:e1:f1:02:9d:
                    57:32:66:11:f3:f0:f3:35:9d:12:9d:03:c8:92:1c:
                    89:b7:07:77:27:34:db:80:d2:77:b9:fe:9d:00:95:
                    c8:0d:4b:a0:18:b3:0e:54:12:02:98:03:08:e8:94:
                    06:fc:81:6d:86:65:b2:42:bf:c8:73:89:8c:b5:17:
                    63:90:15:11:07:1b:29:50:63:e8:b2:72:d7:31:66:
                    75:96:b6:4f:89:49:36:b4:b9:20:80:b2:48:df:cd:
                    84:92:27:40:25:17:a7:37:eb:54:c6:48:2c:f3:90:
                    a5:dd:61:82:20:5e:c4:39:1d:2e:00:22:6f:86:bd:
                    6d:87:7b:03:cc:57:99:ec:e0:74:2a:5e:fe:bf:42:
                    5e:ef:0c:2b:a6:81:b5:46:e5:5c:5f:92:c7:31:b6:
                    ad:bc:fc:b2:d8:4b:a9:27:dc:4b:40:77:ea:dc:4f:
                    68:fa:dd:e2:bb:f9:42:5a:02:52:f9:2c:eb:d3:b6:
                    90:42:92:85:c9:f4:a7:00:66:81:5f:27:80:c5:56:
                    cc:c9:38:89:9e:35:e5:06:21:0c:bf:b4:22:ef:25:
                    11:14:30:ca:4e:fe:32:97:e6:8a:92:67:f6:c2:cc:
                    c4:a8:37:40:dd:be:f2:80:ac:a7:a2:95:21:88:57:
                    36:99:62:81:cb:00:bb:f8:ad:c7:25:a7:5b:ea:06:
                    67:8e:41:2c:22:54:af:f6:f0:da:93:d2:c5:15:82:
                    6f:2b:bb:d5:83:77:c9:b6:ff:ab:a0:19:ae:2b:d1:
                    d9:85:43:fd:db:0c:a0:3c:5b:df:b1:f5:04:5c:55:
                    b7:9d:17:67:a6:58:f4:a5:9a:e2:b5:30:dc:47:b4:
                    84:5c:04:25:81:63:d9:a6:17:b9:60:15:d0:72:1e:
                    1e:ec:aa:0a:ed:ef:f6:16:37:cd:28:cd:b1:4a:f6:
                    fd:de:99:b6:b7:b0:be:6c:90:28:55:7b:5f:95:3d:
                    8f:b3:a9:4a:5f:b4:94:b5:3a:ff:37:b0:e1:d0:31:
                    05:34:68:e1:a8:1f:f8:ec:80:37:d4:74:13:d7:7b:
                    22:76:b2:70:ab:fd:f4:c7:27:58:fa:7a:44:94:6a:
                    f6:96:68:b1:b2:d7:60:26:eb:aa:ee:4f:63:fa:ac:
                    a3:4e:9e:3c:50:f9:6e:bf:72:95:a8:7a:ae:f4:3e:
                    be:77:23:52:2e:ba:6d:c1:b5:36:a2:cd:3f:69:62:
                    19:3e:a9
                Exponent: 65537 (0x10001)
        X509v3 extensions:
            X509v3 Subject Key Identifier: 
                3C:9A:AC:FD:92:22:76:5A:99:07:BA:71:53:D8:C9:D3:CE:5D:93:FD
            X509v3 Basic Constraints: critical
                CA:TRUE
            X509v3 Key Usage: critical
                Certificate Sign, CRL Sign
    Signature Algorithm: sha256WithRSAEncryption
         8b:aa:4a:e7:85:9a:82:f0:98:21:65:85:18:a6:07:12:33:a9:
         81:73:67:b6:9b:1c:97:33:7e:30:d6:bd:0f:6d:26:aa:5f:3d:
         bf:07:24:67:58:c0:85:01:5a:30:d4:4f:11:b4:6d:d2:f7:19:
         68:81:ab:14:f5:7b:5b:46:12:a2:91:ac:69:1d:88:b4:8c:b9:
         df:f2:bb:44:de:45:e9:41:51:7b:1a:d1:4f:ce:ab:26:e4:8d:
         2e:fa:dd:d7:b3:90:7a:8b:19:4d:f9:28:f7:6b:9a:e2:08:9d:
         e8:46:85:69:d6:46:ee:98:0f:51:4e:89:3d:8a:c3:be:4d:a8:
         f2:d6:5c:9c:92:8f:03:3b:c6:e0:2e:d6:9c:eb:43:a3:29:79:
         3e:22:0f:7f:41:6e:c6:00:75:bf:a9:d4:ae:74:c2:d3:76:d6:
         cb:57:80:f1:b3:5d:53:46:a5:58:99:ea:6f:41:da:48:c1:42:
         cf:0d:f5:93:88:d9:27:6f:a7:0d:08:8f:50:7f:d3:20:53:cd:
         74:d3:10:74:3c:ee:81:f0:d4:ba:f4:5f:1a:80:a6:21:5d:0b:
         f3:46:0e:b0:3f:49:3c:a5:b4:29:cf:90:5c:a0:48:73:d5:96:
         27:c8:ca:de:9c:06:ff:7b:2a:a4:74:1f:36:66:31:3b:ba:3f:
         ff:6f:11:c2:60:48:60:5c:f3:d4:61:eb:b0:60:63:a3:54:89:
         a4:81:d4:cc:74:cf:dc:0d:6e:83:2a:15:75:82:b6:1d:b6:b9:
         88:d2:16:f1:58:a4:dc:0c:6f:97:8a:99:41:a4:d2:d5:f8:a3:
         f8:5c:aa:d4:09:57:d5:4e:d5:84:64:9d:4a:31:be:ec:90:72:
         a1:4c:44:a3:37:a3:12:3f:2a:16:b4:7f:b0:17:6b:6d:eb:34:
         80:49:07:b4:1d:f6:2b:41:30:ac:79:bb:68:e6:b0:c2:63:ad:
         90:ff:c3:ac:61:a5:52:4d:ad:da:40:dd:ee:fa:aa:20:39:28:
         3c:6c:4d:70:d7:42:5f:5c:b6:d4:97:81:1c:59:74:0c:4a:a5:
         73:a6:f3:ba:e7:67:f9:ef:90:cf:78:02:e6:96:51:9a:bf:86:
         b1:a2:b3:2d:b2:6c:60:2f:ec:61:ae:a9:a6:42:19:0b:5b:31:
         51:8e:b0:11:79:24:93:95:c3:24:32:bb:b7:a6:27:66:f0:1b:
         e9:8f:16:08:44:f2:32:8b:b7:b3:db:71:1c:e0:be:15:b2:dc:
         0f:d9:b8:b1:44:3d:66:a3:63:a8:6d:4e:5f:86:d0:b3:2a:5e:
         16:e4:fe:5b:ec:7e:dd:bf:8c:59:f4:e8:46:e1:6b:a9:95:7e:
         b2:58:32:d2:39:2e:98:77
-----BEGIN CERTIFICATE-----
MIIGNDCCBBygAwIBAgICEAMwDQYJKoZIhvcNAQELBQAwgboxCzAJBgNVBAYTAlVT
MRYwFAYDVQQIDA1NYXNzYWNodXNldHRzMScwJQYDVQQKDB5UaGVybW8gRmlzaGVy
IFNjaWVudGlmaWMsIEluYy4xJTAjBgNVBAsMHENsaW5pY2FsIFNlcXVlbmNpbmcg
RGl2aXNpb24xEDAOBgNVBAMMB1Jvb3QgQ0ExMTAvBgkqhkiG9w0BCQEWIkxTR1NT
RlVOSVhTdXBwb3J0QHRoZXJtb2Zpc2hlci5jb20wHhcNMjMwNjE5MDYwMTA1WhcN
MzMwNjE2MDYwMTA1WjCBujELMAkGA1UEBhMCVVMxFjAUBgNVBAgMDU1hc3NhY2h1
c2V0dHMxJzAlBgNVBAoMHlRoZXJtbyBGaXNoZXIgU2NpZW50aWZpYywgSW5jLjEl
MCMGA1UECwwcQ2xpbmljYWwgU2VxdWVuY2luZyBEaXZpc2lvbjEQMA4GA1UEAwwH
Um9vdCBDQTExMC8GCSqGSIb3DQEJARYiTFNHU1NGVU5JWFN1cHBvcnRAdGhlcm1v
ZmlzaGVyLmNvbTCCAiIwDQYJKoZIhvcNAQEBBQADggIPADCCAgoCggIBALDrEJz2
tUh+ZaK+Prgo0i7Lu/t1u4MISl02YQWzBxa3KmSPPRFLEptuLeVVtfVkxdZLAI6M
lJDh8QKdVzJmEfPw8zWdEp0DyJIcibcHdyc024DSd7n+nQCVyA1LoBizDlQSApgD
COiUBvyBbYZlskK/yHOJjLUXY5AVEQcbKVBj6LJy1zFmdZa2T4lJNrS5IICySN/N
hJInQCUXpzfrVMZILPOQpd1hgiBexDkdLgAib4a9bYd7A8xXmezgdCpe/r9CXu8M
K6aBtUblXF+SxzG2rbz8sthLqSfcS0B36txPaPrd4rv5QloCUvks69O2kEKShcn0
pwBmgV8ngMVWzMk4iZ415QYhDL+0Iu8lERQwyk7+MpfmipJn9sLMxKg3QN2+8oCs
p6KVIYhXNpligcsAu/itxyWnW+oGZ45BLCJUr/bw2pPSxRWCbyu71YN3ybb/q6AZ
rivR2YVD/dsMoDxb37H1BFxVt50XZ6ZY9KWa4rUw3Ee0hFwEJYFj2aYXuWAV0HIe
HuyqCu3v9hY3zSjNsUr2/d6ZtrewvmyQKFV7X5U9j7OpSl+0lLU6/zew4dAxBTRo
4agf+OyAN9R0E9d7InaycKv99McnWPp6RJRq9pZosbLXYCbrqu5PY/qso06ePFD5
br9ylah6rvQ+vncjUi66bcG1NqLNP2liGT6pAgMBAAGjQjBAMB0GA1UdDgQWBBQ8
mqz9kiJ2WpkHunFT2MnTzl2T/TAPBgNVHRMBAf8EBTADAQH/MA4GA1UdDwEB/wQE
AwIBBjANBgkqhkiG9w0BAQsFAAOCAgEAi6pK54WagvCYIWWFGKYHEjOpgXNntpsc
lzN+MNa9D20mql89vwckZ1jAhQFaMNRPEbRt0vcZaIGrFPV7W0YSopGsaR2ItIy5
3/K7RN5F6UFRexrRT86rJuSNLvrd17OQeosZTfko92ua4gid6EaFadZG7pgPUU6J
PYrDvk2o8tZcnJKPAzvG4C7WnOtDoyl5PiIPf0FuxgB1v6nUrnTC03bWy1eA8bNd
U0alWJnqb0HaSMFCzw31k4jZJ2+nDQiPUH/TIFPNdNMQdDzugfDUuvRfGoCmIV0L
80YOsD9JPKW0Kc+QXKBIc9WWJ8jK3pwG/3sqpHQfNmYxO7o//28RwmBIYFzz1GHr
sGBjo1SJpIHUzHTP3A1ugyoVdYK2Hba5iNIW8Vik3Axvl4qZQaTS1fij+Fyq1AlX
1U7VhGSdSjG+7JByoUxEozejEj8qFrR/sBdrbes0gEkHtB32K0EwrHm7aOawwmOt
kP/DrGGlUk2t2kDd7vqqIDkoPGxNcNdCX1y21JeBHFl0DEqlc6bzuudn+e+Qz3gC
5pZRmr+GsaKzLbJsYC/sYa6ppkIZC1sxUY6wEXkkk5XDJDK7t6YnZvAb6Y8WCETy
Mou3s9txHOC+FbLcD9m4sUQ9ZqNjqG1OX4bQsypeFuT+W+x+3b+MWfToRuFrqZV+
slgy0jkumHc=
-----END CERTIFICATE-----
