Certificate:
    Data:
        Version: 3 (0x2)
        Serial Number: 4099 (0x1003)
        Signature Algorithm: sha256WithRSAEncryption
        Issuer: C=US, ST=Massachusetts, O=Thermo Fisher Scientific, Inc., OU=Clinical Sequencing Division, CN=CSD Root CA/emailAddress=LSGSSFUNIXSupport@thermofisher.com
        Validity
            Not Before: Jun 19 07:08:03 2023 GMT
            Not After : Jun 14 07:08:03 2043 GMT
        Subject: C=US, ST=Massachusetts, O=Thermo Fisher Scientific, Inc., OU=Clinical Sequencing Division, CN=CSD Root CA/emailAddress=LSGSSFUNIXSupport@thermofisher.com
        Subject Public Key Info:
            Public Key Algorithm: rsaEncryption
                RSA Public-Key: (4096 bit)
                Modulus:
                    00:97:27:ec:12:ce:df:2d:0f:7a:3b:93:c1:0c:12:
                    25:ba:09:cb:47:d0:8a:05:b7:04:b9:2b:05:ec:1d:
                    d3:d0:55:99:a6:0c:b6:2e:86:ea:03:74:a3:c2:6f:
                    4c:17:63:74:7a:eb:60:4d:23:ab:d7:1b:7b:bd:49:
                    44:59:d4:15:6e:04:ed:54:53:5d:fc:13:08:30:fb:
                    3d:2f:f3:dd:e5:31:1c:d6:b4:e7:e3:99:1b:05:ae:
                    37:05:40:ee:a0:b5:8f:06:85:b4:d3:93:7f:4d:5a:
                    43:27:80:9b:92:6b:42:ce:d7:f7:fe:c5:78:90:b5:
                    2c:2f:fc:94:23:a5:21:d5:62:a8:ca:3b:d5:43:f4:
                    96:9b:75:13:08:e2:da:b7:cf:a0:81:50:86:9d:39:
                    55:a3:6b:cc:d4:bc:ee:ca:4f:ea:c7:3f:2a:32:ea:
                    2f:dc:31:5f:77:f5:64:6a:63:c4:94:dc:5f:4f:f1:
                    c2:a6:b1:30:92:99:71:29:8c:1a:ba:d6:ce:dc:7c:
                    a7:28:13:9c:5b:9d:5a:92:fc:23:2e:d4:95:70:a9:
                    13:f7:0a:5f:11:22:07:d3:10:f8:b6:3f:d0:b0:ab:
                    98:87:ba:ed:48:51:72:71:cb:f0:23:fb:54:fd:e9:
                    d9:25:62:b1:f6:53:f2:26:35:fd:14:c2:5d:2e:f6:
                    ba:ee:36:95:07:4c:cb:db:06:56:e1:a7:a8:bb:9e:
                    2d:b0:72:94:3a:fa:73:3c:a2:56:ea:ab:9f:99:fe:
                    c6:93:9c:b7:27:6d:5e:6e:f9:8e:02:d5:d7:b0:e7:
                    ee:77:9a:1d:20:58:2d:a4:04:36:7b:94:24:2d:3f:
                    14:f1:4e:29:d9:dc:b7:89:b6:0c:0c:56:fc:26:04:
                    ff:8a:8f:54:10:80:5e:9d:2c:d7:4c:b9:1a:37:3e:
                    94:b7:3b:b5:2c:ff:50:e1:4d:d5:af:22:4c:03:b3:
                    51:f2:9f:c6:d8:8e:d0:2c:61:78:f3:57:31:a2:56:
                    c0:2f:4e:2b:36:8b:ca:be:15:5c:dc:28:1d:61:60:
                    5c:f7:c7:19:fa:14:ce:84:91:e5:a3:48:8f:36:c7:
                    3f:63:9f:ee:d1:76:c6:f2:1c:f3:da:14:44:96:54:
                    98:57:03:77:a5:9f:08:1a:61:08:82:64:ca:a7:8d:
                    60:c8:8b:c6:35:e6:f2:02:46:ff:8c:05:3b:d2:b5:
                    58:f3:38:44:17:ec:01:64:66:e0:8d:62:28:1c:5c:
                    1c:2a:62:59:a5:e6:c4:c3:87:d1:46:57:97:62:de:
                    40:20:23:dd:b4:3b:b1:8c:17:1f:a4:06:9b:d5:28:
                    8b:95:79:1c:0c:32:fd:4b:1c:a3:48:2c:06:a7:b6:
                    85:76:bd
                Exponent: 65537 (0x10001)
        X509v3 extensions:
            X509v3 Subject Key Identifier: 
                44:A8:66:45:E3:5B:2A:7F:38:5D:26:48:A9:33:CE:6E:CF:0C:0C:C9
            X509v3 Basic Constraints: critical
                CA:TRUE
            X509v3 Key Usage: critical
                Certificate Sign, CRL Sign
    Signature Algorithm: sha256WithRSAEncryption
         6d:04:fe:08:09:ef:52:48:5b:e1:f9:a7:f2:5f:75:d4:23:4e:
         25:b6:c0:8e:ee:4c:27:76:30:3c:54:7f:e2:a4:63:23:7b:fd:
         5f:52:47:88:bb:6b:f4:8b:b6:29:51:ab:f3:3e:97:04:61:20:
         91:70:42:0f:88:f6:54:e4:95:d3:ad:0d:7f:4b:f1:e5:8c:4e:
         f1:be:be:b5:99:85:81:23:12:a0:29:dc:8d:1a:f0:27:92:08:
         7d:7e:d9:a5:56:87:6e:7a:ac:84:0f:fe:20:0d:5d:2b:16:22:
         da:d8:4a:b6:26:ab:6d:71:56:21:ed:43:48:34:b7:b5:19:0e:
         88:98:ed:59:a2:f8:e1:f2:a2:85:4a:74:78:a9:95:37:ab:99:
         2b:49:1e:a1:eb:0b:fd:aa:ac:0e:cb:29:c1:5b:f5:6a:01:58:
         9c:7c:ff:9e:66:a5:31:fa:7b:d1:18:a5:c8:5e:9d:04:ea:91:
         e8:56:3c:70:66:94:c8:fa:52:3a:12:9c:a8:0a:77:f7:34:19:
         9c:08:ae:20:4b:b3:48:c9:60:51:b7:d8:78:61:4e:c4:dd:67:
         c1:c7:21:67:70:0e:f8:4b:c2:66:cd:68:39:2a:ea:1e:52:bc:
         1b:bf:f6:08:59:e0:dd:9d:f2:80:bd:d5:13:75:f1:40:cd:da:
         66:94:0c:5d:c6:2f:1e:b4:d3:17:8c:48:c7:a9:00:1c:3b:b2:
         96:17:7a:65:67:e4:41:df:6a:7e:15:3a:dc:db:c2:4b:c1:65:
         b1:ab:79:74:df:2c:18:c7:f9:22:7d:b3:32:22:c4:09:6a:bb:
         e3:08:f5:3a:3b:cc:25:14:8e:0b:f1:87:fb:95:12:64:e8:2a:
         29:e6:db:46:05:1f:3c:09:c8:3d:3e:ab:93:3b:e5:52:23:e4:
         5e:71:06:55:fc:79:87:30:01:c4:c5:3b:dd:be:a1:7b:d8:17:
         e3:5a:ee:6f:10:65:9b:7c:77:05:f0:ee:a4:c9:0f:50:b8:0e:
         55:d9:c8:69:44:19:cb:cf:77:b5:56:86:49:e6:44:82:03:81:
         bc:13:b3:8f:05:51:b9:2d:9e:40:b9:74:73:38:11:3f:62:e7:
         89:44:23:b2:e6:fc:ed:f5:87:88:00:fd:67:66:f0:fe:85:11:
         d0:3c:58:eb:5a:cd:2c:e8:e6:db:d0:c5:fc:46:c7:a4:ab:8c:
         c1:f0:23:2a:59:fc:93:b8:70:ea:1d:22:56:cc:2d:69:6a:fa:
         8a:97:f1:65:f8:b9:5a:f3:58:83:5d:ce:20:32:84:bb:8c:9a:
         4c:41:f5:3a:04:63:54:0e:52:46:98:7f:ab:b2:ae:a7:14:d4:
         9e:87:ec:85:25:27:73:59
-----BEGIN CERTIFICATE-----
MIIGPDCCBCSgAwIBAgICEAMwDQYJKoZIhvcNAQELBQAwgb4xCzAJBgNVBAYTAlVT
MRYwFAYDVQQIDA1NYXNzYWNodXNldHRzMScwJQYDVQQKDB5UaGVybW8gRmlzaGVy
IFNjaWVudGlmaWMsIEluYy4xJTAjBgNVBAsMHENsaW5pY2FsIFNlcXVlbmNpbmcg
RGl2aXNpb24xFDASBgNVBAMMC0NTRCBSb290IENBMTEwLwYJKoZIhvcNAQkBFiJM
U0dTU0ZVTklYU3VwcG9ydEB0aGVybW9maXNoZXIuY29tMB4XDTIzMDYxOTA3MDgw
M1oXDTQzMDYxNDA3MDgwM1owgb4xCzAJBgNVBAYTAlVTMRYwFAYDVQQIDA1NYXNz
YWNodXNldHRzMScwJQYDVQQKDB5UaGVybW8gRmlzaGVyIFNjaWVudGlmaWMsIElu
Yy4xJTAjBgNVBAsMHENsaW5pY2FsIFNlcXVlbmNpbmcgRGl2aXNpb24xFDASBgNV
BAMMC0NTRCBSb290IENBMTEwLwYJKoZIhvcNAQkBFiJMU0dTU0ZVTklYU3VwcG9y
dEB0aGVybW9maXNoZXIuY29tMIICIjANBgkqhkiG9w0BAQEFAAOCAg8AMIICCgKC
AgEAlyfsEs7fLQ96O5PBDBIlugnLR9CKBbcEuSsF7B3T0FWZpgy2LobqA3Sjwm9M
F2N0eutgTSOr1xt7vUlEWdQVbgTtVFNd/BMIMPs9L/Pd5TEc1rTn45kbBa43BUDu
oLWPBoW005N/TVpDJ4CbkmtCztf3/sV4kLUsL/yUI6Uh1WKoyjvVQ/SWm3UTCOLa
t8+ggVCGnTlVo2vM1Lzuyk/qxz8qMuov3DFfd/VkamPElNxfT/HCprEwkplxKYwa
utbO3HynKBOcW51akvwjLtSVcKkT9wpfESIH0xD4tj/QsKuYh7rtSFFyccvwI/tU
/enZJWKx9lPyJjX9FMJdLva67jaVB0zL2wZW4aeou54tsHKUOvpzPKJW6qufmf7G
k5y3J21ebvmOAtXXsOfud5odIFgtpAQ2e5QkLT8U8U4p2dy3ibYMDFb8JgT/io9U
EIBenSzXTLkaNz6Utzu1LP9Q4U3VryJMA7NR8p/G2I7QLGF481cxolbAL04rNovK
vhVc3CgdYWBc98cZ+hTOhJHlo0iPNsc/Y5/u0XbG8hzz2hREllSYVwN3pZ8IGmEI
gmTKp41gyIvGNebyAkb/jAU70rVY8zhEF+wBZGbgjWIoHFwcKmJZpebEw4fRRleX
Yt5AICPdtDuxjBcfpAab1SiLlXkcDDL9SxyjSCwGp7aFdr0CAwEAAaNCMEAwHQYD
VR0OBBYEFESoZkXjWyp/OF0mSKkzzm7PDAzJMA8GA1UdEwEB/wQFMAMBAf8wDgYD
VR0PAQH/BAQDAgEGMA0GCSqGSIb3DQEBCwUAA4ICAQBtBP4ICe9SSFvh+afyX3XU
I04ltsCO7kwndjA8VH/ipGMje/1fUkeIu2v0i7YpUavzPpcEYSCRcEIPiPZU5JXT
rQ1/S/HljE7xvr61mYWBIxKgKdyNGvAnkgh9ftmlVodueqyED/4gDV0rFiLa2Eq2
JqttcVYh7UNINLe1GQ6ImO1Zovjh8qKFSnR4qZU3q5krSR6h6wv9qqwOyynBW/Vq
AVicfP+eZqUx+nvRGKXIXp0E6pHoVjxwZpTI+lI6EpyoCnf3NBmcCK4gS7NIyWBR
t9h4YU7E3WfBxyFncA74S8JmzWg5KuoeUrwbv/YIWeDdnfKAvdUTdfFAzdpmlAxd
xi8etNMXjEjHqQAcO7KWF3plZ+RB32p+FTrc28JLwWWxq3l03ywYx/kifbMyIsQJ
arvjCPU6O8wlFI4L8Yf7lRJk6Cop5ttGBR88Ccg9PquTO+VSI+RecQZV/HmHMAHE
xTvdvqF72BfjWu5vEGWbfHcF8O6kyQ9QuA5V2chpRBnLz3e1VoZJ5kSCA4G8E7OP
BVG5LZ5AuXRzOBE/YueJRCOy5vzt9YeIAP1nZvD+hRHQPFjrWs0s6Obb0MX8Rsek
q4zB8CMqWfyTuHDqHSJWzC1pavqKl/Fl+Lla81iDXc4gMoS7jJpMQfU6BGNUDlJG
mH+rsq6nFNSeh+yFJSdzWQ==
-----END CERTIFICATE-----
