Certificate:
    Data:
        Version: 3 (0x2)
        Serial Number: 4100 (0x1004)
        Signature Algorithm: sha256WithRSAEncryption
        Issuer: C=US, ST=Massachusetts, O=Thermo Fisher Scientific, Inc., OU=Clinical Sequencing Division, CN=CSD Root CA/emailAddress=LSGSSFUNIXSupport@thermofisher.com
        Validity
            Not Before: Jun 19 07:08:24 2023 GMT
            Not After : Jun 14 07:08:24 2043 GMT
        Subject: C=US, ST=Massachusetts, O=Thermo Fisher Scientific, Inc., OU=Clinical Sequencing Division, CN=CSD Root CA/emailAddress=LSGSSFUNIXSupport@thermofisher.com
        Subject Public Key Info:
            Public Key Algorithm: rsaEncryption
                RSA Public-Key: (4096 bit)
                Modulus:
                    00:c7:cf:65:80:3e:bc:47:12:2b:cc:e4:12:0b:ca:
                    08:ae:99:21:f7:85:d4:57:c2:1e:b5:68:ee:90:ba:
                    f9:7e:3c:26:f5:30:f3:0e:a3:d8:d5:31:4e:39:29:
                    f6:4f:4a:a6:08:dc:35:92:fe:ba:3e:80:06:f8:fb:
                    5d:3e:a6:d6:a4:e6:e1:1b:2b:fe:10:35:1f:50:56:
                    f6:d5:8b:a3:05:e2:97:a7:0a:fb:18:67:78:53:ba:
                    8d:c8:da:be:4c:df:7e:a9:e4:2d:de:5d:0e:4f:aa:
                    f2:8a:7d:5e:1a:77:0a:d5:2b:b4:8d:f2:a1:e8:0b:
                    77:56:c7:d5:7e:df:d0:00:25:f6:60:d9:a1:05:29:
                    79:f9:19:ef:70:44:63:7f:24:d0:d1:0b:74:92:0d:
                    0a:c3:2d:52:e9:ac:59:7f:9a:ae:8b:d7:53:36:76:
                    2c:85:3b:7f:ef:54:c5:52:7e:fe:0c:1d:e1:c8:e4:
                    f3:dd:eb:35:b0:35:6a:a8:7b:6e:1a:2b:c6:ac:fd:
                    a1:a8:a1:e1:e9:86:de:ca:12:1f:87:26:e0:54:e3:
                    85:1c:87:a6:66:1a:42:a4:d4:ee:3e:b6:00:80:25:
                    bb:14:42:a6:44:d6:90:a4:81:51:ed:0d:73:3d:a6:
                    a8:4d:63:a2:61:8d:fc:96:9e:9a:2b:54:be:f1:72:
                    98:7c:b9:5e:1e:7b:59:4e:06:b3:7d:41:ea:e9:6c:
                    b0:97:09:91:e5:9a:86:85:83:08:df:37:e8:54:e5:
                    e5:97:ed:a1:b8:17:f0:4b:f4:e1:f3:fe:73:cc:81:
                    36:11:cb:02:2d:86:22:62:87:18:12:99:72:84:6a:
                    57:ba:cf:5b:61:45:e6:c5:2c:39:31:e7:b4:de:bf:
                    fe:80:41:22:a3:30:71:8a:e4:3e:5b:f2:33:7f:da:
                    c7:62:a5:08:50:99:44:b5:05:43:62:40:51:0e:e9:
                    5d:92:8f:5b:53:50:92:2c:88:70:2f:1f:6f:b4:a3:
                    e2:c6:99:55:84:14:7c:d0:24:56:81:f0:b9:8a:24:
                    cb:ec:7a:ed:ef:b0:d6:2d:6a:4e:85:a1:e5:3d:79:
                    01:7f:18:1b:82:2e:67:96:50:6f:5e:e6:c4:6d:77:
                    0b:7b:18:e0:19:f2:e3:ba:2b:6e:30:cb:23:c8:85:
                    43:d7:59:5e:7b:97:a6:87:4c:64:be:b0:c4:f2:37:
                    28:a9:c9:5a:33:23:e7:af:9a:21:cb:3a:06:8f:15:
                    0a:49:44:f0:9c:b8:34:cd:ec:dc:9a:f6:aa:17:f1:
                    8d:b9:03:01:23:f4:42:a6:70:32:a6:d6:5d:ac:d4:
                    73:62:79:56:eb:c4:4b:35:fd:b8:91:74:fd:24:3c:
                    ab:26:f5
                Exponent: 65537 (0x10001)
        X509v3 extensions:
            X509v3 Subject Key Identifier: 
                F4:48:EF:6F:6C:8C:9E:08:DE:4B:5D:2D:D5:86:CA:CF:62:8C:14:CE
            X509v3 Basic Constraints: critical
                CA:TRUE
            X509v3 Key Usage: critical
                Certificate Sign, CRL Sign
    Signature Algorithm: sha256WithRSAEncryption
         7a:aa:b8:8b:83:dc:f6:a2:bf:50:f4:a3:e9:bf:09:a3:4e:88:
         4b:6f:ff:bf:40:82:c1:04:1a:99:0d:88:0e:8f:82:72:97:5e:
         78:b2:d0:3d:12:85:ae:fc:51:0c:ab:db:3b:2f:b8:19:12:d5:
         85:82:f2:2a:6e:e5:23:e0:2a:2e:20:02:fd:3f:2b:8f:39:89:
         76:57:29:ea:d5:f3:22:b3:9c:55:65:10:54:af:97:80:70:58:
         c3:7a:29:01:63:ca:53:4f:d5:01:e2:27:68:5b:64:3a:c2:9f:
         3a:19:c0:4d:15:6e:8e:b7:51:08:58:d3:41:c3:2c:ef:d5:00:
         b3:fd:9c:a1:85:ca:a3:34:4a:87:57:f9:32:9b:67:fe:86:2b:
         53:c7:36:af:17:b4:6e:d4:18:e2:b8:39:e0:6e:74:34:ff:52:
         a6:72:a7:01:b7:07:e6:c7:db:44:b1:99:30:8f:81:f6:e6:fe:
         0d:0d:db:67:14:37:c0:58:08:3f:9c:c6:b7:44:ab:88:7e:cd:
         80:29:3e:cd:7c:76:46:c6:18:4e:93:34:b7:03:b2:60:54:24:
         32:a1:eb:bd:39:56:1e:71:1b:1a:ea:25:aa:80:30:a6:ac:b1:
         8a:17:dc:7a:16:f3:59:9e:b2:ca:83:6b:f9:44:f4:b1:31:3a:
         bf:57:60:2e:76:59:c8:9e:0c:4b:b8:05:32:c2:dc:b4:f8:5a:
         bf:45:a7:cc:3e:ac:6a:8f:7c:2a:f1:86:59:36:73:9a:33:f5:
         e5:38:35:a2:0f:ca:c7:c4:e6:ce:9a:a3:38:ac:2a:63:81:a3:
         a1:c1:de:34:de:ca:7f:0b:91:4d:79:85:09:05:12:ce:40:d1:
         89:e1:4b:50:cd:75:83:20:5b:1c:67:f2:4f:61:f4:3b:2c:0e:
         69:05:17:b2:90:c7:6d:5f:61:70:d1:83:cb:cb:26:01:c0:3a:
         36:fc:5c:f2:6d:71:28:11:e4:a3:96:4b:4d:7d:52:ab:3a:c6:
         13:f5:00:a2:22:ee:fc:92:a4:7c:b6:54:7d:0f:54:40:16:f0:
         e5:ba:08:c4:8c:96:31:ec:e2:09:6e:62:c8:9d:31:44:78:e6:
         3d:e8:da:51:98:05:e1:12:9d:89:67:18:a8:35:21:d3:f4:77:
         82:04:11:eb:f0:35:6c:87:7c:5a:a6:4a:fe:d1:8a:34:30:31:
         60:7f:3c:a4:4a:49:8d:3b:66:f5:fd:03:21:ff:ab:7b:cd:41:
         28:41:ca:69:9c:93:1a:29:0d:75:f4:09:3c:d4:da:0e:c3:74:
         4c:71:27:2a:8c:14:21:08:1d:b0:ae:8c:54:d4:e6:77:c6:4e:
         e2:60:c9:db:f3:c9:5f:2e
-----BEGIN CERTIFICATE-----
MIIGPDCCBCSgAwIBAgICEAQwDQYJKoZIhvcNAQELBQAwgb4xCzAJBgNVBAYTAlVT
MRYwFAYDVQQIDA1NYXNzYWNodXNldHRzMScwJQYDVQQKDB5UaGVybW8gRmlzaGVy
IFNjaWVudGlmaWMsIEluYy4xJTAjBgNVBAsMHENsaW5pY2FsIFNlcXVlbmNpbmcg
RGl2aXNpb24xFDASBgNVBAMMC0NTRCBSb290IENBMTEwLwYJKoZIhvcNAQkBFiJM
U0dTU0ZVTklYU3VwcG9ydEB0aGVybW9maXNoZXIuY29tMB4XDTIzMDYxOTA3MDgy
NFoXDTQzMDYxNDA3MDgyNFowgb4xCzAJBgNVBAYTAlVTMRYwFAYDVQQIDA1NYXNz
YWNodXNldHRzMScwJQYDVQQKDB5UaGVybW8gRmlzaGVyIFNjaWVudGlmaWMsIElu
Yy4xJTAjBgNVBAsMHENsaW5pY2FsIFNlcXVlbmNpbmcgRGl2aXNpb24xFDASBgNV
BAMMC0NTRCBSb290IENBMTEwLwYJKoZIhvcNAQkBFiJMU0dTU0ZVTklYU3VwcG9y
dEB0aGVybW9maXNoZXIuY29tMIICIjANBgkqhkiG9w0BAQEFAAOCAg8AMIICCgKC
AgEAx89lgD68RxIrzOQSC8oIrpkh94XUV8IetWjukLr5fjwm9TDzDqPY1TFOOSn2
T0qmCNw1kv66PoAG+PtdPqbWpObhGyv+EDUfUFb21YujBeKXpwr7GGd4U7qNyNq+
TN9+qeQt3l0OT6ryin1eGncK1Su0jfKh6At3VsfVft/QACX2YNmhBSl5+RnvcERj
fyTQ0Qt0kg0Kwy1S6axZf5qui9dTNnYshTt/71TFUn7+DB3hyOTz3es1sDVqqHtu
GivGrP2hqKHh6YbeyhIfhybgVOOFHIemZhpCpNTuPrYAgCW7FEKmRNaQpIFR7Q1z
PaaoTWOiYY38lp6aK1S+8XKYfLleHntZTgazfUHq6WywlwmR5ZqGhYMI3zfoVOXl
l+2huBfwS/Th8/5zzIE2EcsCLYYiYocYEplyhGpXus9bYUXmxSw5Mee03r/+gEEi
ozBxiuQ+W/Izf9rHYqUIUJlEtQVDYkBRDuldko9bU1CSLIhwLx9vtKPixplVhBR8
0CRWgfC5iiTL7Hrt77DWLWpOhaHlPXkBfxgbgi5nllBvXubEbXcLexjgGfLjuitu
MMsjyIVD11lee5emh0xkvrDE8jcoqclaMyPnr5ohyzoGjxUKSUTwnLg0zezcmvaq
F/GNuQMBI/RCpnAyptZdrNRzYnlW68RLNf24kXT9JDyrJvUCAwEAAaNCMEAwHQYD
VR0OBBYEFPRI729sjJ4I3ktdLdWGys9ijBTOMA8GA1UdEwEB/wQFMAMBAf8wDgYD
VR0PAQH/BAQDAgEGMA0GCSqGSIb3DQEBCwUAA4ICAQB6qriLg9z2or9Q9KPpvwmj
TohLb/+/QILBBBqZDYgOj4Jyl154stA9EoWu/FEMq9s7L7gZEtWFgvIqbuUj4Cou
IAL9PyuPOYl2Vynq1fMis5xVZRBUr5eAcFjDeikBY8pTT9UB4idoW2Q6wp86GcBN
FW6Ot1EIWNNBwyzv1QCz/ZyhhcqjNEqHV/kym2f+hitTxzavF7Ru1BjiuDngbnQ0
/1KmcqcBtwfmx9tEsZkwj4H25v4NDdtnFDfAWAg/nMa3RKuIfs2AKT7NfHZGxhhO
kzS3A7JgVCQyoeu9OVYecRsa6iWqgDCmrLGKF9x6FvNZnrLKg2v5RPSxMTq/V2Au
dlnIngxLuAUywty0+Fq/RafMPqxqj3wq8YZZNnOaM/XlODWiD8rHxObOmqM4rCpj
gaOhwd403sp/C5FNeYUJBRLOQNGJ4UtQzXWDIFscZ/JPYfQ7LA5pBReykMdtX2Fw
0YPLyyYBwDo2/FzybXEoEeSjlktNfVKrOsYT9QCiIu78kqR8tlR9D1RAFvDlugjE
jJYx7OIJbmLInTFEeOY96NpRmAXhEp2JZxioNSHT9HeCBBHr8DVsh3xapkr+0Yo0
MDFgfzykSkmNO2b1/QMh/6t7zUEoQcppnJMaKQ119Ak81NoOw3RMcScqjBQhCB2w
roxU1OZ3xk7iYMnb88lfLg==
-----END CERTIFICATE-----
