Certificate:
    Data:
        Version: 3 (0x2)
        Serial Number: 4100 (0x1004)
        Signature Algorithm: sha256WithRSAEncryption
        Issuer: C=US, ST=Massachusetts, O=Thermo Fisher Scientific, Inc., OU=Clinical Sequencing Division, CN=CSD Root CA/emailAddress=LSGSSFUNIXSupport@thermofisher.com
        Validity
            Not Before: Jun 19 06:17:48 2023 GMT
            Not After : Jun 16 06:17:48 2033 GMT
        Subject: C=US, ST=Massachusetts, O=Thermo Fisher Scientific, Inc., OU=Clinical Sequencing Division, CN=CSD Root CA/emailAddress=LSGSSFUNIXSupport@thermofisher.com
        Subject Public Key Info:
            Public Key Algorithm: rsaEncryption
                RSA Public-Key: (4096 bit)
                Modulus:
                    00:a1:27:38:da:9a:52:64:41:95:66:7f:86:b7:3c:
                    86:76:a5:f4:11:15:83:d0:67:88:ef:36:12:9f:80:
                    2e:cc:f0:7d:5c:81:4d:f9:af:b3:51:42:be:8d:40:
                    fd:ab:b3:fb:b0:51:7e:66:94:26:39:c0:ab:4f:47:
                    85:5f:eb:ad:d2:4c:46:f6:00:d2:b0:24:15:f2:4c:
                    32:77:e9:4c:88:0a:36:67:16:d4:80:01:c0:89:52:
                    bc:26:d8:dd:40:09:52:cb:0f:1b:4a:e1:f6:5d:15:
                    31:58:28:84:8d:f3:39:16:d0:25:9b:1e:1c:b8:56:
                    49:d9:74:46:d9:85:d7:5f:f7:23:7b:17:d1:40:06:
                    36:1c:4b:67:e9:53:c5:87:fd:eb:01:e9:47:51:b6:
                    ac:a0:57:0b:2c:14:44:00:d3:aa:63:a2:6f:1f:a8:
                    3e:42:52:19:dd:f9:90:2a:75:da:95:c6:cf:a4:45:
                    cf:70:ac:27:8b:33:45:d1:fd:ad:1e:48:3e:38:80:
                    fa:cc:82:49:2c:03:98:88:f2:3a:58:fe:70:e1:73:
                    f3:ae:e1:5e:57:dd:91:e7:01:fe:0d:67:7e:45:7b:
                    1c:1d:39:f4:59:79:b4:b3:47:84:f8:17:58:fc:33:
                    78:e7:00:11:54:13:dd:c1:f0:d1:4b:ba:50:dc:55:
                    79:37:c2:aa:a4:23:aa:dd:c6:a2:64:7e:0d:1c:c2:
                    a8:67:fe:ba:6a:ea:2a:bf:9e:1e:c1:8e:4e:ae:66:
                    61:3c:9e:3a:6d:9c:a7:b6:5f:0d:3e:f8:d0:31:44:
                    c4:0c:c4:2b:f7:af:6f:02:b6:4e:bb:8d:ad:00:be:
                    63:d4:6a:b5:6b:36:c3:7b:c1:4c:ae:ab:06:8e:7b:
                    4c:a8:33:40:22:67:e0:3d:6d:77:7f:3d:b0:c4:38:
                    b1:fa:52:39:f7:ee:2d:aa:e0:84:96:a2:d7:df:bd:
                    17:21:e4:35:48:b0:60:14:b3:ce:3e:99:f7:61:f6:
                    6f:43:89:82:bb:09:4c:5f:b3:bb:6c:aa:83:e9:c7:
                    8b:93:75:c4:c1:c5:c1:1a:cf:17:e7:8d:aa:e5:db:
                    99:27:9f:28:17:3e:af:26:e2:d8:d4:58:ed:64:2a:
                    da:c6:27:b3:be:0a:41:48:03:e1:5f:c2:d1:ea:7c:
                    64:ac:70:7d:3b:8f:f9:a7:e9:2b:23:fa:7d:04:2c:
                    f5:48:c6:03:97:b4:de:c4:9c:87:f6:48:45:8c:b0:
                    60:a1:c1:23:48:1a:6f:70:fe:d6:0c:d7:a2:50:db:
                    34:54:31:a0:e3:b3:cf:16:08:95:54:a3:36:db:4d:
                    3a:04:23:b5:37:4c:01:12:62:31:09:1b:8c:db:df:
                    75:61:3f
                Exponent: 65537 (0x10001)
        X509v3 extensions:
            X509v3 Subject Key Identifier: 
                0F:70:5C:31:B6:15:3A:B9:61:79:71:DA:0D:5D:8B:C6:28:C9:B2:BD
            X509v3 Basic Constraints: critical
                CA:TRUE
            X509v3 Key Usage: critical
                Certificate Sign, CRL Sign
    Signature Algorithm: sha256WithRSAEncryption
         5a:ce:9f:e7:da:de:a4:d4:a1:20:29:41:02:b8:76:79:c7:e2:
         1c:49:9b:7e:ea:f9:ee:f4:a7:75:9c:2a:88:9e:7d:d4:16:00:
         b2:22:40:88:1d:9e:c1:3a:0a:30:67:da:92:c1:22:3c:88:58:
         7a:95:d7:94:8b:4e:64:2f:b3:c1:e1:b6:2e:0a:98:ab:10:9d:
         36:61:75:21:10:78:1a:e0:8f:dd:65:43:32:ac:e4:9c:ca:7f:
         9e:3c:9e:a6:77:a6:21:d7:9e:af:4f:40:7b:44:7f:56:5e:e4:
         b7:d3:a9:a8:77:7c:89:99:92:e7:3e:70:82:75:0d:8b:51:f7:
         41:ca:b4:e4:36:02:0d:6a:af:0b:b5:a3:93:ca:19:2d:d7:f3:
         e7:f4:21:5d:4b:0e:e0:66:e9:97:a4:c1:7a:fd:4a:90:ea:91:
         cb:71:45:e1:6f:42:df:f0:cd:44:5b:aa:19:c4:12:02:c8:5f:
         16:fa:bd:ea:b8:20:db:c3:7f:27:40:ee:a2:ac:88:7d:1b:53:
         80:17:69:4f:77:76:14:37:29:22:05:ee:24:ab:0e:bd:63:6f:
         c6:8a:ec:f1:a2:61:24:24:79:cf:cd:08:5a:4a:28:1f:78:a4:
         e6:bc:b1:37:36:b9:72:2f:c4:c4:92:02:00:c5:44:d0:7a:05:
         c4:89:1c:58:a0:5a:59:cf:f9:9f:69:f8:29:ea:6c:73:3f:8b:
         53:ea:8c:00:99:94:29:cc:d8:59:21:c3:50:da:0c:6d:1c:7f:
         2e:e4:9e:ae:88:6f:4b:97:4c:af:b6:43:4c:4b:b5:d5:97:ca:
         db:13:dc:42:20:23:06:e7:9f:c1:b0:72:09:19:81:31:00:a1:
         19:bd:fb:48:c6:8e:54:70:ac:4f:f7:51:b3:29:b2:55:62:ea:
         b7:27:bb:ea:93:87:db:13:2d:89:78:09:69:c8:1d:5d:16:bc:
         3a:6a:d8:eb:f2:86:e2:3b:27:82:20:c0:b3:a0:cf:c6:df:ab:
         7b:30:0f:8a:f9:7f:42:07:70:b7:5a:ca:4e:c6:02:08:2d:86:
         9e:8a:2d:c4:86:33:86:e3:f0:2e:0a:3c:4c:09:f3:3d:7d:46:
         a1:dc:f5:23:91:0f:7b:ee:40:ae:24:20:70:b2:94:5a:71:83:
         af:31:66:e7:0c:3d:02:e6:77:24:ce:1a:4c:3f:64:27:6d:a0:
         e5:24:df:4e:47:e4:93:f3:ef:2c:b7:91:06:46:19:e0:5d:c0:
         89:dc:52:46:a4:7d:8c:56:f0:00:91:97:43:1c:45:39:2b:f7:
         cb:3d:b3:dc:b8:d2:2a:19:c1:93:4b:d8:f7:7f:36:ce:bd:f7:
         98:00:5e:ab:46:23:dd:85
-----BEGIN CERTIFICATE-----
MIIGPDCCBCSgAwIBAgICEAQwDQYJKoZIhvcNAQELBQAwgb4xCzAJBgNVBAYTAlVT
MRYwFAYDVQQIDA1NYXNzYWNodXNldHRzMScwJQYDVQQKDB5UaGVybW8gRmlzaGVy
IFNjaWVudGlmaWMsIEluYy4xJTAjBgNVBAsMHENsaW5pY2FsIFNlcXVlbmNpbmcg
RGl2aXNpb24xFDASBgNVBAMMC0NTRCBSb290IENBMTEwLwYJKoZIhvcNAQkBFiJM
U0dTU0ZVTklYU3VwcG9ydEB0aGVybW9maXNoZXIuY29tMB4XDTIzMDYxOTA2MTc0
OFoXDTMzMDYxNjA2MTc0OFowgb4xCzAJBgNVBAYTAlVTMRYwFAYDVQQIDA1NYXNz
YWNodXNldHRzMScwJQYDVQQKDB5UaGVybW8gRmlzaGVyIFNjaWVudGlmaWMsIElu
Yy4xJTAjBgNVBAsMHENsaW5pY2FsIFNlcXVlbmNpbmcgRGl2aXNpb24xFDASBgNV
BAMMC0NTRCBSb290IENBMTEwLwYJKoZIhvcNAQkBFiJMU0dTU0ZVTklYU3VwcG9y
dEB0aGVybW9maXNoZXIuY29tMIICIjANBgkqhkiG9w0BAQEFAAOCAg8AMIICCgKC
AgEAoSc42ppSZEGVZn+GtzyGdqX0ERWD0GeI7zYSn4AuzPB9XIFN+a+zUUK+jUD9
q7P7sFF+ZpQmOcCrT0eFX+ut0kxG9gDSsCQV8kwyd+lMiAo2ZxbUgAHAiVK8Jtjd
QAlSyw8bSuH2XRUxWCiEjfM5FtAlmx4cuFZJ2XRG2YXXX/cjexfRQAY2HEtn6VPF
h/3rAelHUbasoFcLLBREANOqY6JvH6g+QlIZ3fmQKnXalcbPpEXPcKwnizNF0f2t
Hkg+OID6zIJJLAOYiPI6WP5w4XPzruFeV92R5wH+DWd+RXscHTn0WXm0s0eE+BdY
/DN45wARVBPdwfDRS7pQ3FV5N8KqpCOq3caiZH4NHMKoZ/66auoqv54ewY5OrmZh
PJ46bZyntl8NPvjQMUTEDMQr969vArZOu42tAL5j1Gq1azbDe8FMrqsGjntMqDNA
ImfgPW13fz2wxDix+lI59+4tquCElqLX370XIeQ1SLBgFLPOPpn3YfZvQ4mCuwlM
X7O7bKqD6ceLk3XEwcXBGs8X542q5duZJ58oFz6vJuLY1FjtZCraxiezvgpBSAPh
X8LR6nxkrHB9O4/5p+krI/p9BCz1SMYDl7TexJyH9khFjLBgocEjSBpvcP7WDNei
UNs0VDGg47PPFgiVVKM22006BCO1N0wBEmIxCRuM2991YT8CAwEAAaNCMEAwHQYD
VR0OBBYEFA9wXDG2FTq5YXlx2g1di8YoybK9MA8GA1UdEwEB/wQFMAMBAf8wDgYD
VR0PAQH/BAQDAgEGMA0GCSqGSIb3DQEBCwUAA4ICAQBazp/n2t6k1KEgKUECuHZ5
x+IcSZt+6vnu9Kd1nCqInn3UFgCyIkCIHZ7BOgowZ9qSwSI8iFh6ldeUi05kL7PB
4bYuCpirEJ02YXUhEHga4I/dZUMyrOScyn+ePJ6md6Yh156vT0B7RH9WXuS306mo
d3yJmZLnPnCCdQ2LUfdByrTkNgINaq8LtaOTyhkt1/Pn9CFdSw7gZumXpMF6/UqQ
6pHLcUXhb0Lf8M1EW6oZxBICyF8W+r3quCDbw38nQO6irIh9G1OAF2lPd3YUNyki
Be4kqw69Y2/GiuzxomEkJHnPzQhaSigfeKTmvLE3NrlyL8TEkgIAxUTQegXEiRxY
oFpZz/mfafgp6mxzP4tT6owAmZQpzNhZIcNQ2gxtHH8u5J6uiG9Ll0yvtkNMS7XV
l8rbE9xCICMG55/BsHIJGYExAKEZvftIxo5UcKxP91GzKbJVYuq3J7vqk4fbEy2J
eAlpyB1dFrw6atjr8obiOyeCIMCzoM/G36t7MA+K+X9CB3C3WspOxgIILYaeii3E
hjOG4/AuCjxMCfM9fUah3PUjkQ977kCuJCBwspRacYOvMWbnDD0C5nckzhpMP2Qn
baDlJN9OR+ST8+8st5EGRhngXcCJ3FJGpH2MVvAAkZdDHEU5K/fLPbPcuNIqGcGT
S9j3fzbOvfeYAF6rRiPdhQ==
-----END CERTIFICATE-----
