Certificate:
    Data:
        Version: 3 (0x2)
        Serial Number: 4101 (0x1005)
        Signature Algorithm: sha256WithRSAEncryption
        Issuer: C=US, ST=Massachusetts, O=Thermo Fisher Scientific, Inc., OU=Clinical Sequencing Division, CN=CSD Intermediate CA/emailAddress=LSGSSFUNIXSupport@thermofisher.com
        Validity
            Not Before: Sep 18 22:37:29 2023 GMT
            Not After : Sep 17 22:37:29 2025 GMT
        Subject: C=US, ST=CA, O=Thermo Fisher Scientific, Inc., OU=Clinical Sequencing Division, CN=app1.uat.ionreporter.thermofisher.com
        Subject Public Key Info:
            Public Key Algorithm: rsaEncryption
                RSA Public-Key: (2048 bit)
                Modulus:
                    00:c2:5f:69:17:dd:04:40:3e:c4:08:07:8e:0f:e3:
                    e7:b1:a1:9e:ed:95:0b:17:02:35:5b:4d:f2:14:43:
                    13:0a:46:bd:bb:4e:ff:a0:f5:e1:9f:81:5e:3a:58:
                    22:45:b3:74:e3:a7:09:cc:e7:ee:bc:30:17:d7:81:
                    f8:69:e0:be:c3:75:85:01:92:74:f3:57:cd:94:fa:
                    8e:f1:9b:49:b2:98:1d:37:e6:35:b2:85:96:c6:aa:
                    83:c3:9d:84:89:bd:4a:c0:4e:c6:36:62:c5:67:26:
                    ba:a4:72:4f:22:02:0d:ce:18:f0:84:d7:d3:da:5c:
                    2d:5c:9c:19:79:1b:cc:6f:30:43:02:53:86:fa:91:
                    ac:36:89:17:d2:7a:b6:06:f7:69:b9:8a:03:e5:a2:
                    e0:92:73:f9:9e:3c:c8:ce:dd:75:25:54:3b:23:1c:
                    e6:47:2a:7b:71:b5:66:6b:7d:17:65:46:6d:64:7c:
                    3f:d1:3f:a4:84:13:b0:28:c6:54:df:fc:c9:94:1c:
                    36:d6:82:d3:22:81:eb:1d:19:7d:10:90:7a:c3:ef:
                    e9:0f:d3:f7:a7:cf:dc:61:e0:44:11:e8:97:cd:a2:
                    85:3c:9a:34:42:67:9c:aa:6e:44:22:3d:5f:6d:41:
                    58:62:27:ba:0f:fd:59:3d:b7:09:03:46:ea:45:21:
                    0a:2f
                Exponent: 65537 (0x10001)
        X509v3 extensions:
            Netscape Cert Type: 
                SSL Server
            Netscape Comment: 
                OpenSSL Generated Server Certificate
            X509v3 Key Usage: critical
                Digital Signature, Key Encipherment, Data Encipherment
            X509v3 Authority Key Identifier: 
                keyid:06:32:42:CE:0C:64:EC:FE:27:B2:52:01:D0:E6:D1:E5:43:0D:B6:AE
                DirName:/C=US/ST=Massachusetts/O=Thermo Fisher Scientific, Inc./OU=Clinical Sequencing Division/CN=CSD Root CA/emailAddress=LSGSSFUNIXSupport@thermofisher.com
                serial:10:02

            X509v3 Extended Key Usage: 
                TLS Web Server Authentication
            X509v3 Subject Key Identifier: 
                A6:FC:9F:74:49:AA:DB:A2:EC:FC:60:D2:AA:05:28:BF:62:EB:4A:C5
            X509v3 Basic Constraints: 
                CA:FALSE
            X509v3 Subject Alternative Name: 
                DNS:app1.uat.ionreporter.thermofisher.com, IP Address:54.88.109.203
    Signature Algorithm: sha256WithRSAEncryption
         b2:85:b3:f5:44:c1:5d:f8:b5:51:ec:c7:ab:3d:59:ab:2b:39:
         2d:db:3b:31:d1:dc:1b:e0:6a:86:66:1b:92:af:b4:5a:73:b5:
         3c:10:46:ed:ee:13:05:59:43:d3:4d:65:7a:72:29:d4:3e:52:
         2a:30:a1:96:3b:db:9d:1d:fa:a6:f0:fd:4a:eb:be:44:d8:ca:
         92:3c:0e:16:02:61:3b:4c:93:9e:23:1b:86:bc:65:d2:70:60:
         46:a2:27:65:cc:a4:1f:00:24:94:fa:d1:57:2f:ba:e9:fe:27:
         88:61:b8:54:0c:8a:21:a3:08:2f:7c:38:68:fa:e2:0f:fa:d5:
         c7:27:4b:9a:a8:2a:ad:ca:39:91:3a:5a:92:5f:55:ed:8c:01:
         92:fc:8b:d1:5d:df:fb:95:5d:8a:89:42:8b:ca:96:bc:9c:ee:
         bf:d4:9f:1e:c2:08:0f:22:d6:c4:19:79:22:0f:c4:73:70:25:
         2f:df:72:41:7b:5c:ab:ea:a9:43:7f:7c:94:5d:8d:e3:7c:c8:
         80:b0:02:ab:68:1f:47:c1:04:cc:3c:91:fd:1c:0d:9f:73:87:
         b1:e9:e1:f9:d6:a4:cb:c0:85:8c:66:d6:94:90:00:f1:a2:58:
         66:f7:7d:cd:db:14:16:e9:9c:b1:27:22:0c:8d:df:de:b9:f6:
         46:a9:11:4b:54:3f:c4:4e:62:9d:12:b5:e9:e0:70:50:3f:fc:
         ae:ad:45:3a:76:f6:80:b6:80:56:86:bd:09:6c:31:75:3a:b2:
         95:a4:51:ee:48:cb:c3:6b:52:5c:34:07:b8:f9:8e:ce:54:b4:
         5f:eb:c0:46:20:66:5d:f1:20:45:67:37:20:6c:43:25:fc:96:
         ff:73:80:2d:da:fa:da:e2:2d:15:f0:69:7a:d4:fb:8a:37:b4:
         1b:ce:1c:67:35:ad:2a:9c:25:8c:7d:15:46:e2:c8:4d:32:d4:
         e2:e1:b4:30:c0:34:cc:b3:11:3a:27:95:29:9b:ef:90:e3:2e:
         2b:87:b7:47:b7:cc:cc:91:5b:7c:9a:76:9b:49:bc:5d:c5:0f:
         b4:89:96:c1:a8:e8:fa:81:ce:86:f9:df:09:b5:4b:25:fb:50:
         11:55:ce:2c:62:9c:52:38:cb:a3:c4:c8:8d:83:31:23:1d:76:
         d2:05:38:b7:77:5e:61:f9:26:9e:63:b7:3e:ca:2e:0f:82:52:
         60:9b:41:df:5d:d9:92:cb:17:1d:8e:a9:24:a8:2a:58:d5:58:
         c9:a9:6c:99:37:4e:f9:1f:bc:95:6a:05:c4:34:b3:0b:64:21:
         62:17:f4:0f:cb:83:86:05:eb:48:3e:ff:e8:ff:23:78:02:68:
         8f:88:17:7d:27:b8:41:01
-----BEGIN CERTIFICATE-----
MIIGojCCBIqgAwIBAgICEAUwDQYJKoZIhvcNAQELBQAwgcYxCzAJBgNVBAYTAlVT
MRYwFAYDVQQIDA1NYXNzYWNodXNldHRzMScwJQYDVQQKDB5UaGVybW8gRmlzaGVy
IFNjaWVudGlmaWMsIEluYy4xJTAjBgNVBAsMHENsaW5pY2FsIFNlcXVlbmNpbmcg
RGl2aXNpb24xHDAaBgNVBAMME0NTRCBJbnRlcm1lZGlhdGUgQ0ExMTAvBgkqhkiG
9w0BCQEWIkxTR1NTRlVOSVhTdXBwb3J0QHRoZXJtb2Zpc2hlci5jb20wHhcNMjMw
OTE4MjIzNzI5WhcNMjUwOTE3MjIzNzI5WjCBmjELMAkGA1UEBhMCVVMxCzAJBgNV
BAgMAkNBMScwJQYDVQQKDB5UaGVybW8gRmlzaGVyIFNjaWVudGlmaWMsIEluYy4x
JTAjBgNVBAsMHENsaW5pY2FsIFNlcXVlbmNpbmcgRGl2aXNpb24xLjAsBgNVBAMM
JWFwcDEudWF0LmlvbnJlcG9ydGVyLnRoZXJtb2Zpc2hlci5jb20wggEiMA0GCSqG
SIb3DQEBAQUAA4IBDwAwggEKAoIBAQDCX2kX3QRAPsQIB44P4+exoZ7tlQsXAjVb
TfIUQxMKRr27Tv+g9eGfgV46WCJFs3TjpwnM5+68MBfXgfhp4L7DdYUBknTzV82U
+o7xm0mymB035jWyhZbGqoPDnYSJvUrATsY2YsVnJrqkck8iAg3OGPCE19PaXC1c
nBl5G8xvMEMCU4b6kaw2iRfSerYG92m5igPlouCSc/mePMjO3XUlVDsjHOZHKntx
tWZrfRdlRm1kfD/RP6SEE7AoxlTf/MmUHDbWgtMigesdGX0QkHrD7+kP0/enz9xh
4EQR6JfNooU8mjRCZ5yqbkQiPV9tQVhiJ7oP/Vk9twkDRupFIQovAgMBAAGjggHC
MIIBvjARBglghkgBhvhCAQEEBAMCBkAwMwYJYIZIAYb4QgENBCYWJE9wZW5TU0wg
R2VuZXJhdGVkIFNlcnZlciBDZXJ0aWZpY2F0ZTAOBgNVHQ8BAf8EBAMCBLAwgewG
A1UdIwSB5DCB4YAUBjJCzgxk7P4nslIB0ObR5UMNtq6hgcSkgcEwgb4xCzAJBgNV
BAYTAlVTMRYwFAYDVQQIDA1NYXNzYWNodXNldHRzMScwJQYDVQQKDB5UaGVybW8g
RmlzaGVyIFNjaWVudGlmaWMsIEluYy4xJTAjBgNVBAsMHENsaW5pY2FsIFNlcXVl
bmNpbmcgRGl2aXNpb24xFDASBgNVBAMMC0NTRCBSb290IENBMTEwLwYJKoZIhvcN
AQkBFiJMU0dTU0ZVTklYU3VwcG9ydEB0aGVybW9maXNoZXIuY29tggIQAjATBgNV
HSUEDDAKBggrBgEFBQcDATAdBgNVHQ4EFgQUpvyfdEmq26Ls/GDSqgUov2LrSsUw
CQYDVR0TBAIwADA2BgNVHREELzAtgiVhcHAxLnVhdC5pb25yZXBvcnRlci50aGVy
bW9maXNoZXIuY29thwQ2WG3LMA0GCSqGSIb3DQEBCwUAA4ICAQCyhbP1RMFd+LVR
7MerPVmrKzkt2zsx0dwb4GqGZhuSr7Rac7U8EEbt7hMFWUPTTWV6cinUPlIqMKGW
O9udHfqm8P1K675E2MqSPA4WAmE7TJOeIxuGvGXScGBGoidlzKQfACSU+tFXL7rp
/ieIYbhUDIohowgvfDho+uIP+tXHJ0uaqCqtyjmROlqSX1XtjAGS/IvRXd/7lV2K
iUKLypa8nO6/1J8ewggPItbEGXkiD8RzcCUv33JBe1yr6qlDf3yUXY3jfMiAsAKr
aB9HwQTMPJH9HA2fc4ex6eH51qTLwIWMZtaUkADxolhm933N2xQW6ZyxJyIMjd/e
ufZGqRFLVD/ETmKdErXp4HBQP/yurUU6dvaAtoBWhr0JbDF1OrKVpFHuSMvDa1Jc
NAe4+Y7OVLRf68BGIGZd8SBFZzcgbEMl/Jb/c4At2vra4i0V8Gl61PuKN7Qbzhxn
Na0qnCWMfRVG4shNMtTi4bQwwDTMsxE6J5Upm++Q4y4rh7dHt8zMkVt8mnabSbxd
xQ+0iZbBqOj6gc6G+d8JtUsl+1ARVc4sYpxSOMujxMiNgzEjHXbSBTi3d15h+Sae
Y7c+yi4PglJgm0HfXdmSyxcdjqkkqCpY1VjJqWyZN075H7yVagXENLMLZCFiF/QP
y4OGBetIPv/o/yN4AmiPiBd9J7hBAQ==
-----END CERTIFICATE-----
