Certificate:
    Data:
        Version: 3 (0x2)
        Serial Number: 4103 (0x1007)
        Signature Algorithm: sha256WithRSAEncryption
        Issuer: C=US, ST=California, O=Thermo Fisher Scientific, Inc., OU=Clinical Sequencing Division, CN=*.ha-us.dso.thermofisher.net
        Validity
            Not Before: Sep 18 17:54:40 2023 GMT
            Not After : Sep 17 17:54:40 2025 GMT
        Subject: C=US, ST=CA, L=South San Francisco, O=Thermo-Fisher Scientific, OU=Clinical Sequencing Division, CN=ec2-54-88-109-203.compute-1.amazonaws.com
        Subject Public Key Info:
            Public Key Algorithm: rsaEncryption
                RSA Public-Key: (2048 bit)
                Modulus:
                    00:9d:2b:9f:af:89:d0:bc:dc:7b:86:16:26:ca:4d:
                    06:57:6a:46:60:4c:44:6e:c0:98:82:7a:4a:a5:c5:
                    bb:37:58:26:1d:40:72:56:f9:dd:0c:7e:78:2a:f5:
                    15:c3:36:dd:f5:36:12:7b:ad:42:73:da:5e:a8:50:
                    7d:6b:50:31:5c:4d:c0:3a:93:2d:ba:58:73:23:db:
                    de:7b:5b:0b:09:72:cc:07:2e:b2:10:19:23:41:2d:
                    32:66:6f:54:79:e2:41:c3:a7:3c:cc:c2:0b:1a:b7:
                    51:64:b0:fc:96:b6:90:44:9d:aa:7f:01:56:6b:ce:
                    7a:a9:fd:05:d6:c7:c7:b7:9e:59:98:70:91:e1:b2:
                    79:8f:62:07:77:f6:a5:38:75:c6:e4:32:68:70:29:
                    24:0e:27:c6:44:88:1e:5e:69:fe:6e:33:21:d3:44:
                    cb:d2:8d:dd:60:f0:36:00:b7:c1:f8:ae:39:1b:26:
                    0c:5e:3a:35:22:8d:09:23:76:31:41:86:fb:48:6c:
                    df:52:b9:da:0f:a1:fb:9e:97:17:06:7e:8f:5d:9e:
                    53:7d:95:e6:a5:f6:ca:77:2d:1c:c7:13:62:c0:07:
                    6d:1b:32:c5:42:4f:64:39:f0:d1:17:82:9e:a1:7c:
                    21:74:a4:ae:8c:b0:b7:36:24:d8:85:0b:c5:38:c6:
                    d4:eb
                Exponent: 65537 (0x10001)
        X509v3 extensions:
            X509v3 Basic Constraints: 
                CA:FALSE
            Netscape Cert Type: 
                SSL Server
            Netscape Comment: 
                OpenSSL Generated Server Certificate
            X509v3 Subject Key Identifier: 
                25:FA:FB:DE:88:27:38:94:CC:48:A1:B6:BB:CF:EB:D8:8C:21:45:75
            X509v3 Authority Key Identifier: 
                keyid:79:35:C3:C9:C6:A6:B6:73:2B:C2:5E:F6:90:84:C7:C2:42:0E:90:11
                DirName:/C=US/ST=Massachusetts/O=Thermo Fisher Scientific, Inc./OU=Clinical Sequencing Division/CN=CSD Intermediate CA/emailAddress=LSGSSFUNIXSupport@thermofisher.com
                serial:10:02

            X509v3 Key Usage: critical
                Digital Signature, Key Encipherment
            X509v3 Extended Key Usage: 
                TLS Web Server Authentication
    Signature Algorithm: sha256WithRSAEncryption
         18:f1:8b:fb:92:90:0c:8f:40:60:e0:02:12:0d:b7:e1:63:8c:
         1a:52:f9:ed:38:fd:e0:27:19:d5:40:17:ae:37:3e:02:26:fa:
         42:03:b2:31:17:c0:b3:e5:8d:95:48:c5:2c:23:a3:02:62:36:
         aa:ef:66:c5:d4:78:23:06:de:67:1f:35:55:34:82:81:1e:99:
         fd:a1:ff:dd:34:67:fa:09:bf:9e:d9:fc:32:c8:51:59:0a:07:
         e0:95:6c:23:38:47:24:f3:5c:4d:d3:c6:ad:ac:18:f5:22:c3:
         a4:9c:31:de:40:9c:7f:14:fc:1f:ff:b6:fb:36:a4:fd:b3:3c:
         84:69:05:20:c9:ff:0b:43:62:b2:f8:91:9c:9d:c6:30:cb:6e:
         09:31:d4:75:a2:f9:3f:39:4e:88:a5:1b:1d:7a:ec:12:61:c8:
         93:79:54:fa:e3:e6:da:4a:2c:86:e6:3f:5e:8c:09:64:30:da:
         bc:d3:ed:80:04:0a:dc:bd:9d:1e:1e:07:c5:29:a3:57:00:db:
         b1:f7:da:aa:0f:90:1e:f9:59:a0:ee:26:c3:9c:09:ab:74:6a:
         b3:19:fe:e2:fc:96:47:45:e2:5f:3b:ca:0b:39:17:31:b6:55:
         85:88:b3:6e:97:66:5b:e0:fe:b2:c9:74:13:b4:0d:a7:33:14:
         29:4f:99:24:dd:36:d6:02:1d:b9:9d:7e:d5:7e:6c:ef:a4:cc:
         e6:d8:33:d5:6f:18:69:f2:65:ac:7d:3c:86:cc:99:0e:e9:c4:
         23:f7:95:13:ee:6a:2c:98:c9:a3:2f:ac:4d:3c:90:bb:ee:74:
         4a:24:a7:72:45:f1:d6:00:d0:4b:0e:a3:34:e5:62:7e:29:89:
         92:0e:39:17:21:20:3c:2b:f3:79:fd:b8:34:18:57:21:2f:ac:
         35:b2:43:ce:54:a5:8d:56:58:22:17:ac:b9:bb:05:d0:bb:df:
         4c:d0:52:63:e7:eb:e3:c5:aa:7c:ac:f5:50:91:44:5c:a9:1f:
         8f:36:98:25:c5:38:2d:10:9e:57:df:cc:79:59:ad:51:cf:e6:
         73:f9:d6:4c:0c:96:1a:1c:bc:3b:53:97:8e:90:e3:2b:23:f7:
         2e:6e:27:04:eb:59:ab:75:0f:10:34:7b:3b:e6:87:1f:f8:27:
         0c:ec:1b:45:e2:37:47:b0:bc:d2:98:eb:32:4a:9c:ef:95:c2:
         2c:83:30:9f:3c:52:a2:b3:5d:54:a1:54:9b:29:5d:3e:16:47:
         39:03:76:33:b8:1c:3f:ee:21:26:c4:ba:d2:5d:9f:e2:dc:41:
         ee:79:46:fc:1c:33:08:28:4a:7d:35:cf:5c:b4:8c:10:46:79:
         48:74:07:9a:dc:92:7b:f9
-----BEGIN CERTIFICATE-----
MIIGYTCCBEmgAwIBAgICEAcwDQYJKoZIhvcNAQELBQAwgZkxCzAJBgNVBAYTAlVT
MRMwEQYDVQQIDApDYWxpZm9ybmlhMScwJQYDVQQKDB5UaGVybW8gRmlzaGVyIFNj
aWVudGlmaWMsIEluYy4xJTAjBgNVBAsMHENsaW5pY2FsIFNlcXVlbmNpbmcgRGl2
aXNpb24xJTAjBgNVBAMMHCouaGEtdXMuZHNvLnRoZXJtb2Zpc2hlci5uZXQwHhcN
MjMwOTE4MTc1NDQwWhcNMjUwOTE3MTc1NDQwWjCBtjELMAkGA1UEBhMCVVMxCzAJ
BgNVBAgMAkNBMRwwGgYDVQQHDBNTb3V0aCBTYW4gRnJhbmNpc2NvMSEwHwYDVQQK
DBhUaGVybW8tRmlzaGVyIFNjaWVudGlmaWMxJTAjBgNVBAsMHENsaW5pY2FsIFNl
cXVlbmNpbmcgRGl2aXNpb24xMjAwBgNVBAMMKWVjMi01NC04OC0xMDktMjAzLmNv
bXB1dGUtMS5hbWF6b25hd3MuY29tMIIBIjANBgkqhkiG9w0BAQEFAAOCAQ8AMIIB
CgKCAQEAnSufr4nQvNx7hhYmyk0GV2pGYExEbsCYgnpKpcW7N1gmHUByVvndDH54
KvUVwzbd9TYSe61Cc9peqFB9a1AxXE3AOpMtulhzI9vee1sLCXLMBy6yEBkjQS0y
Zm9UeeJBw6c8zMILGrdRZLD8lraQRJ2qfwFWa856qf0F1sfHt55ZmHCR4bJ5j2IH
d/alOHXG5DJocCkkDifGRIgeXmn+bjMh00TL0o3dYPA2ALfB+K45GyYMXjo1Io0J
I3YxQYb7SGzfUrnaD6H7npcXBn6PXZ5TfZXmpfbKdy0cxxNiwAdtGzLFQk9kOfDR
F4KeoXwhdKSujLC3NiTYhQvFOMbU6wIDAQABo4IBkjCCAY4wCQYDVR0TBAIwADAR
BglghkgBhvhCAQEEBAMCBkAwMwYJYIZIAYb4QgENBCYWJE9wZW5TU0wgR2VuZXJh
dGVkIFNlcnZlciBDZXJ0aWZpY2F0ZTAdBgNVHQ4EFgQUJfr73ognOJTMSKG2u8/r
2IwhRXUwgfQGA1UdIwSB7DCB6YAUeTXDycamtnMrwl72kITHwkIOkBGhgcykgckw
gcYxCzAJBgNVBAYTAlVTMRYwFAYDVQQIDA1NYXNzYWNodXNldHRzMScwJQYDVQQK
DB5UaGVybW8gRmlzaGVyIFNjaWVudGlmaWMsIEluYy4xJTAjBgNVBAsMHENsaW5p
Y2FsIFNlcXVlbmNpbmcgRGl2aXNpb24xHDAaBgNVBAMME0NTRCBJbnRlcm1lZGlh
dGUgQ0ExMTAvBgkqhkiG9w0BCQEWIkxTR1NTRlVOSVhTdXBwb3J0QHRoZXJtb2Zp
c2hlci5jb22CAhACMA4GA1UdDwEB/wQEAwIFoDATBgNVHSUEDDAKBggrBgEFBQcD
ATANBgkqhkiG9w0BAQsFAAOCAgEAGPGL+5KQDI9AYOACEg234WOMGlL57Tj94CcZ
1UAXrjc+Aib6QgOyMRfAs+WNlUjFLCOjAmI2qu9mxdR4IwbeZx81VTSCgR6Z/aH/
3TRn+gm/ntn8MshRWQoH4JVsIzhHJPNcTdPGrawY9SLDpJwx3kCcfxT8H/+2+zak
/bM8hGkFIMn/C0NisviRnJ3GMMtuCTHUdaL5PzlOiKUbHXrsEmHIk3lU+uPm2kos
huY/XowJZDDavNPtgAQK3L2dHh4HxSmjVwDbsffaqg+QHvlZoO4mw5wJq3Rqsxn+
4vyWR0XiXzvKCzkXMbZVhYizbpdmW+D+ssl0E7QNpzMUKU+ZJN021gIduZ1+1X5s
76TM5tgz1W8YafJlrH08hsyZDunEI/eVE+5qLJjJoy+sTTyQu+50SiSnckXx1gDQ
Sw6jNOVifimJkg45FyEgPCvzef24NBhXIS+sNbJDzlSljVZYIhesubsF0LvfTNBS
Y+fr48WqfKz1UJFEXKkfjzaYJcU4LRCeV9/MeVmtUc/mc/nWTAyWGhy8O1OXjpDj
KyP3Lm4nBOtZq3UPEDR7O+aHH/gnDOwbReI3R7C80pjrMkqc75XCLIMwnzxSorNd
VKFUmyldPhZHOQN2M7gcP+4hJsS60l2f4txB7nlG/BwzCChKfTXPXLSMEEZ5SHQH
mtySe/k=
-----END CERTIFICATE-----
